(dp1
S'parse_record'
p2
(lp3
(i__main__
Function
p4
(dp5
S'end'
p6
S'toy.c:42:1'
p7
sS'name'
p8
g2
sS'ret_type'
p9
S'file_entry *'
p10
sS'filename'
p11
S'toy.c'
p12
sS'start'
p13
S'toy.c:37:1'
p14
sS'params'
p15
(lp16
(dp17
S'param'
p18
S'FILE *'
p19
sasS'extern'
p20
I00
sS'hasbody'
p21
I01
sbasS'consume_record'
p22
(lp23
(i__main__
Function
p24
(dp25
g6
S'toy.c:57:1'
p26
sg8
g22
sg9
S'void'
p27
sg11
S'toy.c'
p28
sg13
S'toy.c:44:1'
p29
sg15
(lp30
(dp31
S'param'
p32
S'file_entry *'
p33
sasg20
I00
sg21
I01
sbasS'parse_header'
p34
(lp35
(i__main__
Function
p36
(dp37
g6
S'toy.c:35:1'
p38
sg8
g34
sg9
S'void'
p39
sg11
S'toy.c'
p40
sg13
S'toy.c:30:1'
p41
sg15
(lp42
(dp43
S'param'
p44
S'FILE *'
p45
sa(dp46
S'param'
p47
S'file_header *'
p48
sasg20
I00
sg21
I01
sbasS'main'
p49
(lp50
(i__main__
Function
p51
(dp52
g6
S'toy.c:72:1'
p53
sg8
g49
sg9
S'int'
p54
sg11
S'toy.c'
p55
sg13
S'toy.c:59:1'
p56
sg15
(lp57
(dp58
S'param'
p59
S'int'
p60
sa(dp61
S'param'
p62
S'char **'
p63
sasg20
I00
sg21
I01
sbas.(dp1
S'jrand48_r'
p2
(lp3
(i__main__
Function
p4
(dp5
S'end'
p6
S'/usr/include/stdlib.h:406:14 <Spelling=/usr/include/sys/cdefs.h:285:63>'
p7
sS'name'
p8
g2
sS'ret_type'
p9
S'int'
p10
sS'filename'
p11
S'/usr/include/stdlib.h'
p12
sS'start'
p13
S'/usr/include/stdlib.h:403:1'
p14
sS'params'
p15
(lp16
(dp17
S'param'
p18
S'unsigned short [3]'
p19
sa(dp20
S'param'
p21
S'struct drand48_data *restrict'
p22
sa(dp23
S'param'
p24
S'long *restrict'
p25
sasS'extern'
p26
I01
sS'hasbody'
p27
I00
sbasS'getc'
p28
(lp29
(i__main__
Function
p30
(dp31
g6
S'/usr/include/stdio.h:534:32'
p32
sg8
g28
sg9
S'int'
p33
sg11
S'/usr/include/stdio.h'
p34
sg13
S'/usr/include/stdio.h:534:1'
p35
sg15
(lp36
(dp37
S'param'
p38
S'FILE *'
p39
sasg26
I01
sg27
I00
sbasS'a64l'
p40
(lp41
(i__main__
Function
p42
(dp43
g6
S'/usr/include/stdlib.h:270:33 <Spelling=/usr/include/sys/cdefs.h:285:63>'
p44
sg8
g40
sg9
S'long'
p45
sg11
S'/usr/include/stdlib.h'
p46
sg13
S'/usr/include/stdlib.h:269:1'
p47
sg15
(lp48
(dp49
S'param'
p50
S'const char *'
p51
sasg26
I01
sg27
I00
sbasS'wctomb'
p52
(lp53
(i__main__
Function
p54
(dp55
g6
S'/usr/include/stdlib.h:830:48 <Spelling=/usr/include/sys/cdefs.h:55:54>'
p56
sg8
g52
sg9
S'int'
p57
sg11
S'/usr/include/stdlib.h'
p58
sg13
S'/usr/include/stdlib.h:830:1'
p59
sg15
(lp60
(dp61
S'param'
p62
S'char *'
p63
sa(dp64
S'param'
p65
S'wchar_t'
p66
sasg26
I01
sg27
I00
sbasS'strtouq'
p67
(lp68
(i__main__
Function
p69
(dp70
g6
S'/usr/include/stdlib.h:163:14 <Spelling=/usr/include/sys/cdefs.h:285:63>'
p71
sg8
g67
sg9
S'unsigned long long'
p72
sg11
S'/usr/include/stdlib.h'
p73
sg13
S'/usr/include/stdlib.h:161:1'
p74
sg15
(lp75
(dp76
S'param'
p77
S'const char *restrict'
p78
sa(dp79
S'param'
p80
S'char **restrict'
p81
sa(dp82
S'param'
p83
S'int'
p84
sasg26
I01
sg27
I00
sbasS'_IO_putc'
p85
(lp86
(i__main__
Function
p87
(dp88
g6
S'/usr/include/libio.h:430:45'
p89
sg8
g85
sg9
S'int'
p90
sg11
S'/usr/include/libio.h'
p91
sg13
S'/usr/include/libio.h:430:1'
p92
sg15
(lp93
(dp94
S'param'
p95
S'int'
p96
sa(dp97
S'param'
p98
S'_IO_FILE *'
p99
sasg26
I01
sg27
I00
sbasS'putchar_unlocked'
p100
(lp101
(i__main__
Function
p102
(dp103
g6
S'/usr/include/stdio.h:605:37'
p104
sg8
g100
sg9
S'int'
p105
sg11
S'/usr/include/stdio.h'
p106
sg13
S'/usr/include/stdio.h:605:1'
p107
sg15
(lp108
(dp109
S'param'
p110
S'int'
p111
sasg26
I01
sg27
I00
sbasS'strtoul'
p112
(lp113
(i__main__
Function
p114
(dp115
g6
S'/usr/include/stdlib.h:150:14 <Spelling=/usr/include/sys/cdefs.h:285:63>'
p116
sg8
g112
sg9
S'unsigned long'
p117
sg11
S'/usr/include/stdlib.h'
p118
sg13
S'/usr/include/stdlib.h:148:1'
p119
sg15
(lp120
(dp121
S'param'
p122
S'const char *restrict'
p123
sa(dp124
S'param'
p125
S'char **restrict'
p126
sa(dp127
S'param'
p128
S'int'
p129
sasg26
I01
sg27
I00
sbasS'ferror_unlocked'
p130
(lp131
(i__main__
Function
p132
(dp133
g6
S'/usr/include/stdio.h:839:45 <Spelling=/usr/include/sys/cdefs.h:55:54>'
p134
sg8
g130
sg9
S'int'
p135
sg11
S'/usr/include/stdio.h'
p136
sg13
S'/usr/include/stdio.h:839:1'
p137
sg15
(lp138
(dp139
S'param'
p140
S'FILE *'
p141
sasg26
I01
sg27
I00
sbasS'fflush'
p142
(lp143
(i__main__
Function
p144
(dp145
g6
S'/usr/include/stdio.h:244:34'
p146
sg8
g142
sg9
S'int'
p147
sg11
S'/usr/include/stdio.h'
p148
sg13
S'/usr/include/stdio.h:244:1'
p149
sg15
(lp150
(dp151
S'param'
p152
S'FILE *'
p153
sasg26
I01
sg27
I00
sbasS'qecvt_r'
p154
(lp155
(i__main__
Function
p156
(dp157
g6
S'/usr/include/stdlib.h:812:14 <Spelling=/usr/include/sys/cdefs.h:285:63>'
p158
sg8
g154
sg9
S'int'
p159
sg11
S'/usr/include/stdlib.h'
p160
sg13
S'/usr/include/stdlib.h:809:1'
p161
sg15
(lp162
(dp163
S'param'
p164
S'long double'
p165
sa(dp166
S'param'
p167
S'int'
p168
sa(dp169
S'param'
p170
S'int *restrict'
p171
sa(dp172
S'param'
p173
S'int *restrict'
p174
sa(dp175
S'param'
p176
S'char *restrict'
p177
sa(dp178
S'param'
p179
S'size_t'
p180
sasg26
I01
sg27
I00
sbasS'atoll'
p181
(lp182
(i__main__
Function
p183
(dp184
g6
S'/usr/include/stdlib.h:119:33 <Spelling=/usr/include/sys/cdefs.h:285:63>'
p185
sg8
g181
sg9
S'long long'
p186
sg11
S'/usr/include/stdlib.h'
p187
sg13
S'/usr/include/stdlib.h:118:15'
p188
sg15
(lp189
(dp190
S'param'
p191
S'const char *'
p192
sasg26
I01
sg27
I00
sbasS'strtol'
p193
(lp194
(i__main__
Function
p195
(dp196
g6
S'/usr/include/stdlib.h:146:14 <Spelling=/usr/include/sys/cdefs.h:285:63>'
p197
sg8
g193
sg9
S'long'
p198
sg11
S'/usr/include/stdlib.h'
p199
sg13
S'/usr/include/stdlib.h:144:1'
p200
sg15
(lp201
(dp202
S'param'
p203
S'const char *restrict'
p204
sa(dp205
S'param'
p206
S'char **restrict'
p207
sa(dp208
S'param'
p209
S'int'
p210
sasg26
I01
sg27
I00
sbasS'fputc'
p211
(lp212
(i__main__
Function
p213
(dp214
g6
S'/usr/include/stdio.h:575:42'
p215
sg8
g211
sg9
S'int'
p216
sg11
S'/usr/include/stdio.h'
p217
sg13
S'/usr/include/stdio.h:575:1'
p218
sg15
(lp219
(dp220
S'param'
p221
S'int'
p222
sa(dp223
S'param'
p224
S'FILE *'
p225
sasg26
I01
sg27
I00
sbasS'__underflow'
p226
(lp227
(i__main__
Function
p228
(dp229
g6
S'/usr/include/libio.h:385:35'
p230
sg8
g226
sg9
S'int'
p231
sg11
S'/usr/include/libio.h'
p232
sg13
S'/usr/include/libio.h:385:1'
p233
sg15
(lp234
(dp235
S'param'
p236
S'_IO_FILE *'
p237
sasg26
I01
sg27
I00
sbasS'strtod'
p238
(lp239
(i__main__
Function
p240
(dp241
g6
S'/usr/include/stdlib.h:127:14 <Spelling=/usr/include/sys/cdefs.h:285:63>'
p242
sg8
g238
sg9
S'double'
p243
sg11
S'/usr/include/stdlib.h'
p244
sg13
S'/usr/include/stdlib.h:125:1'
p245
sg15
(lp246
(dp247
S'param'
p248
S'const char *restrict'
p249
sa(dp250
S'param'
p251
S'char **restrict'
p252
sasg26
I01
sg27
I00
sbasS'fwrite'
p253
(lp254
(i__main__
Function
p255
(dp256
g6
S'/usr/include/stdio.h:718:41'
p257
sg8
g253
sg9
S'size_t'
p258
sg11
S'/usr/include/stdio.h'
p259
sg13
S'/usr/include/stdio.h:717:1'
p260
sg15
(lp261
(dp262
S'param'
p263
S'const void *restrict'
p264
sa(dp265
S'param'
p266
S'size_t'
p267
sa(dp268
S'param'
p269
S'size_t'
p270
sa(dp271
S'param'
p272
S'FILE *restrict'
p273
sasg26
I01
sg27
I00
sbasS'strtof'
p274
(lp275
(i__main__
Function
p276
(dp277
g6
S'/usr/include/stdlib.h:134:44 <Spelling=/usr/include/sys/cdefs.h:285:63>'
p278
sg8
g274
sg9
S'float'
p279
sg11
S'/usr/include/stdlib.h'
p280
sg13
S'/usr/include/stdlib.h:133:1'
p281
sg15
(lp282
(dp283
S'param'
p284
S'const char *restrict'
p285
sa(dp286
S'param'
p287
S'char **restrict'
p288
sasg26
I01
sg27
I00
sbasS'_IO_ftrylockfile'
p289
(lp290
(i__main__
Function
p291
(dp292
g6
S'/usr/include/libio.h:442:42 <Spelling=/usr/include/sys/cdefs.h:55:54>'
p293
sg8
g289
sg9
S'int'
p294
sg11
S'/usr/include/libio.h'
p295
sg13
S'/usr/include/libio.h:442:1'
p296
sg15
(lp297
(dp298
S'param'
p299
S'_IO_FILE *'
p300
sasg26
I01
sg27
I00
sbasS'mkstemps'
p301
(lp302
(i__main__
Function
p303
(dp304
g6
S'/usr/include/stdlib.h:602:57 <Spelling=/usr/include/sys/cdefs.h:285:63>'
p305
sg8
g301
sg9
S'int'
p306
sg11
S'/usr/include/stdlib.h'
p307
sg13
S'/usr/include/stdlib.h:602:1'
p308
sg15
(lp309
(dp310
S'param'
p311
S'char *'
p312
sa(dp313
S'param'
p314
S'int'
p315
sasg26
I01
sg27
I00
sbasS'fputs'
p316
(lp317
(i__main__
Function
p318
(dp319
g6
S'/usr/include/stdio.h:691:72'
p320
sg8
g316
sg9
S'int'
p321
sg11
S'/usr/include/stdio.h'
p322
sg13
S'/usr/include/stdio.h:691:1'
p323
sg15
(lp324
(dp325
S'param'
p326
S'const char *restrict'
p327
sa(dp328
S'param'
p329
S'FILE *restrict'
p330
sasg26
I01
sg27
I00
sbasS'lrand48_r'
p331
(lp332
(i__main__
Function
p333
(dp334
g6
S'/usr/include/stdlib.h:393:14 <Spelling=/usr/include/sys/cdefs.h:285:63>'
p335
sg8
g331
sg9
S'int'
p336
sg11
S'/usr/include/stdlib.h'
p337
sg13
S'/usr/include/stdlib.h:391:1'
p338
sg15
(lp339
(dp340
S'param'
p341
S'struct drand48_data *restrict'
p342
sa(dp343
S'param'
p344
S'long *restrict'
p345
sasg26
I01
sg27
I00
sbasS'tmpnam'
p346
(lp347
(i__main__
Function
p348
(dp349
g6
S'/usr/include/stdio.h:211:33 <Spelling=/usr/include/sys/cdefs.h:55:54>'
p350
sg8
g346
sg9
S'char *'
p351
sg11
S'/usr/include/stdio.h'
p352
sg13
S'/usr/include/stdio.h:211:1'
p353
sg15
(lp354
(dp355
S'param'
p356
S'char *'
p357
sasg26
I01
sg27
I00
sbasS'feof_unlocked'
p358
(lp359
(i__main__
Function
p360
(dp361
g6
S'/usr/include/stdio.h:838:43 <Spelling=/usr/include/sys/cdefs.h:55:54>'
p362
sg8
g358
sg9
S'int'
p363
sg11
S'/usr/include/stdio.h'
p364
sg13
S'/usr/include/stdio.h:838:1'
p365
sg15
(lp366
(dp367
S'param'
p368
S'FILE *'
p369
sasg26
I01
sg27
I00
sbasS'exit'
p370
(lp371
(i__main__
Function
p372
(dp373
g6
S'/usr/include/stdlib.h:504:70'
p374
sg8
g370
sg9
S'void'
p375
sg11
S'/usr/include/stdlib.h'
p376
sg13
S'/usr/include/stdlib.h:504:1'
p377
sg15
(lp378
(dp379
S'param'
p380
S'int'
p381
sasg26
I01
sg27
I00
sbasS'getline'
p382
(lp383
(i__main__
Function
p384
(dp385
g6
S'/usr/include/stdio.h:682:33'
p386
sg8
g382
sg9
S'__ssize_t'
p387
sg11
S'/usr/include/stdio.h'
p388
sg13
S'/usr/include/stdio.h:680:1'
p389
sg15
(lp390
(dp391
S'param'
p392
S'char **restrict'
p393
sa(dp394
S'param'
p395
S'size_t *restrict'
p396
sa(dp397
S'param'
p398
S'FILE *restrict'
p399
sasg26
I01
sg27
I00
sbasS'sprintf'
p400
(lp401
(i__main__
Function
p402
(dp403
g6
S'/usr/include/stdio.h:367:45 <Spelling=/usr/include/sys/cdefs.h:56:49>'
p404
sg8
g400
sg9
S'int'
p405
sg11
S'/usr/include/stdio.h'
p406
sg13
S'/usr/include/stdio.h:366:1'
p407
sg15
(lp408
(dp409
S'param'
p410
S'char *restrict'
p411
sa(dp412
S'param'
p413
S'const char *restrict'
p414
sasg26
I01
sg27
I00
sbasS'l64a'
p415
(lp416
(i__main__
Function
p417
(dp418
g6
S'/usr/include/stdlib.h:266:34 <Spelling=/usr/include/sys/cdefs.h:55:54>'
p419
sg8
g415
sg9
S'char *'
p420
sg11
S'/usr/include/stdlib.h'
p421
sg13
S'/usr/include/stdlib.h:266:1'
p422
sg15
(lp423
(dp424
S'param'
p425
S'long'
p426
sasg26
I01
sg27
I00
sbasS'rand_r'
p427
(lp428
(i__main__
Function
p429
(dp430
g6
S'/usr/include/stdlib.h:342:42 <Spelling=/usr/include/sys/cdefs.h:55:54>'
p431
sg8
g427
sg9
S'int'
p432
sg11
S'/usr/include/stdlib.h'
p433
sg13
S'/usr/include/stdlib.h:342:1'
p434
sg15
(lp435
(dp436
S'param'
p437
S'unsigned int *'
p438
sasg26
I01
sg27
I00
sbasS'fclose'
p439
(lp440
(i__main__
Function
p441
(dp442
g6
S'/usr/include/stdio.h:239:34'
p443
sg8
g439
sg9
S'int'
p444
sg11
S'/usr/include/stdio.h'
p445
sg13
S'/usr/include/stdio.h:239:1'
p446
sg15
(lp447
(dp448
S'param'
p449
S'FILE *'
p450
sasg26
I01
sg27
I00
sbasS'_IO_sgetn'
p451
(lp452
(i__main__
Function
p453
(dp454
g6
S'/usr/include/libio.h:464:60'
p455
sg8
g451
sg9
S'size_t'
p456
sg11
S'/usr/include/libio.h'
p457
sg13
S'/usr/include/libio.h:464:1'
p458
sg15
(lp459
(dp460
S'param'
p461
S'_IO_FILE *'
p462
sa(dp463
S'param'
p464
S'void *'
p465
sa(dp466
S'param'
p467
S'size_t'
p468
sasg26
I01
sg27
I00
sbasS'erand48_r'
p469
(lp470
(i__main__
Function
p471
(dp472
g6
S'/usr/include/stdlib.h:388:46 <Spelling=/usr/include/sys/cdefs.h:285:63>'
p473
sg8
g469
sg9
S'int'
p474
sg11
S'/usr/include/stdlib.h'
p475
sg13
S'/usr/include/stdlib.h:386:1'
p476
sg15
(lp477
(dp478
S'param'
p479
S'unsigned short [3]'
p480
sa(dp481
S'param'
p482
S'struct drand48_data *restrict'
p483
sa(dp484
S'param'
p485
S'double *restrict'
p486
sasg26
I01
sg27
I00
sbasS'srandom_r'
p487
(lp488
(i__main__
Function
p489
(dp490
g6
S'/usr/include/stdlib.h:319:14 <Spelling=/usr/include/sys/cdefs.h:285:63>'
p491
sg8
g487
sg9
S'int'
p492
sg11
S'/usr/include/stdlib.h'
p493
sg13
S'/usr/include/stdlib.h:318:1'
p494
sg15
(lp495
(dp496
S'param'
p497
S'unsigned int'
p498
sa(dp499
S'param'
p500
S'struct random_data *'
p501
sasg26
I01
sg27
I00
sbasS'getloadavg'
p502
(lp503
(i__main__
Function
p504
(dp505
g6
S'/usr/include/stdlib.h:912:14 <Spelling=/usr/include/sys/cdefs.h:285:63>'
p506
sg8
g502
sg9
S'int'
p507
sg11
S'/usr/include/stdlib.h'
p508
sg13
S'/usr/include/stdlib.h:911:1'
p509
sg15
(lp510
(dp511
S'param'
p512
S'double []'
p513
sa(dp514
S'param'
p515
S'int'
p516
sasg26
I01
sg27
I00
sbasS'gnu_dev_minor'
p517
(lp518
(i__main__
Function
p519
(dp520
g6
S'/usr/include/sys/sysmacros.h:31:14 <Spelling=/usr/include/sys/cdefs.h:236:56>'
p521
sg8
g517
sg9
S'unsigned int'
p522
sg11
S'/usr/include/sys/sysmacros.h'
p523
sg13
S'/usr/include/sys/sysmacros.h:30:1'
p524
sg15
(lp525
(dp526
S'param'
p527
S'unsigned long long'
p528
sasg26
I01
sg27
I00
sbasS'fileno'
p529
(lp530
(i__main__
Function
p531
(dp532
g6
S'/usr/include/stdio.h:860:36 <Spelling=/usr/include/sys/cdefs.h:55:54>'
p533
sg8
g529
sg9
S'int'
p534
sg11
S'/usr/include/stdio.h'
p535
sg13
S'/usr/include/stdio.h:860:1'
p536
sg15
(lp537
(dp538
S'param'
p539
S'FILE *'
p540
sasg26
I01
sg27
I00
sbasS'perror'
p541
(lp542
(i__main__
Function
p543
(dp544
g6
S'/usr/include/stdio.h:848:36'
p545
sg8
g541
sg9
S'void'
p546
sg11
S'/usr/include/stdio.h'
p547
sg13
S'/usr/include/stdio.h:848:1'
p548
sg15
(lp549
(dp550
S'param'
p551
S'const char *'
p552
sasg26
I01
sg27
I00
sbasS'renameat'
p553
(lp554
(i__main__
Function
p555
(dp556
g6
S'/usr/include/stdio.h:188:27 <Spelling=/usr/include/sys/cdefs.h:55:54>'
p557
sg8
g553
sg9
S'int'
p558
sg11
S'/usr/include/stdio.h'
p559
sg13
S'/usr/include/stdio.h:187:1'
p560
sg15
(lp561
(dp562
S'param'
p563
S'int'
p564
sa(dp565
S'param'
p566
S'const char *'
p567
sa(dp568
S'param'
p569
S'int'
p570
sa(dp571
S'param'
p572
S'const char *'
p573
sasg26
I01
sg27
I00
sbasS'gcvt'
p574
(lp575
(i__main__
Function
p576
(dp577
g6
S'/usr/include/stdlib.h:785:14 <Spelling=/usr/include/sys/cdefs.h:285:63>'
p578
sg8
g574
sg9
S'char *'
p579
sg11
S'/usr/include/stdlib.h'
p580
sg13
S'/usr/include/stdlib.h:784:1'
p581
sg15
(lp582
(dp583
S'param'
p584
S'double'
p585
sa(dp586
S'param'
p587
S'int'
p588
sa(dp589
S'param'
p590
S'char *'
p591
sasg26
I01
sg27
I00
sbasS'getdelim'
p592
(lp593
(i__main__
Function
p594
(dp595
g6
S'/usr/include/stdio.h:672:34'
p596
sg8
g592
sg9
S'__ssize_t'
p597
sg11
S'/usr/include/stdio.h'
p598
sg13
S'/usr/include/stdio.h:670:1'
p599
sg15
(lp600
(dp601
S'param'
p602
S'char **restrict'
p603
sa(dp604
S'param'
p605
S'size_t *restrict'
p606
sa(dp607
S'param'
p608
S'int'
p609
sa(dp610
S'param'
p611
S'FILE *restrict'
p612
sasg26
I01
sg27
I00
sbasS'remove'
p613
(lp614
(i__main__
Function
p615
(dp616
g6
S'/usr/include/stdio.h:180:44 <Spelling=/usr/include/sys/cdefs.h:55:54>'
p617
sg8
g613
sg9
S'int'
p618
sg11
S'/usr/include/stdio.h'
p619
sg13
S'/usr/include/stdio.h:180:1'
p620
sg15
(lp621
(dp622
S'param'
p623
S'const char *'
p624
sasg26
I01
sg27
I00
sbasS'mblen'
p625
(lp626
(i__main__
Function
p627
(dp628
g6
S'/usr/include/stdlib.h:823:48 <Spelling=/usr/include/sys/cdefs.h:55:54>'
p629
sg8
g625
sg9
S'int'
p630
sg11
S'/usr/include/stdlib.h'
p631
sg13
S'/usr/include/stdlib.h:823:1'
p632
sg15
(lp633
(dp634
S'param'
p635
S'const char *'
p636
sa(dp637
S'param'
p638
S'size_t'
p639
sasg26
I01
sg27
I00
sbasS'random'
p640
(lp641
(i__main__
Function
p642
(dp643
g6
S'/usr/include/stdlib.h:282:31 <Spelling=/usr/include/sys/cdefs.h:55:54>'
p644
sg8
g640
sg9
S'long'
p645
sg11
S'/usr/include/stdlib.h'
p646
sg13
S'/usr/include/stdlib.h:282:1'
p647
sg15
Nsg26
I01
sg27
I00
sbasS'_IO_vfprintf'
p648
(lp649
(i__main__
Function
p650
(dp651
g6
S'/usr/include/libio.h:462:16'
p652
sg8
g648
sg9
S'int'
p653
sg11
S'/usr/include/libio.h'
p654
sg13
S'/usr/include/libio.h:461:1'
p655
sg15
(lp656
(dp657
S'param'
p658
S'_IO_FILE *restrict'
p659
sa(dp660
S'param'
p661
S'const char *restrict'
p662
sa(dp663
S'param'
p664
S'__gnuc_va_list'
p665
sasg26
I01
sg27
I00
sbasS'freopen'
p666
(lp667
(i__main__
Function
p668
(dp669
g6
S'/usr/include/stdio.h:282:34'
p670
sg8
g666
sg9
S'FILE *'
p671
sg11
S'/usr/include/stdio.h'
p672
sg13
S'/usr/include/stdio.h:280:1'
p673
sg15
(lp674
(dp675
S'param'
p676
S'const char *restrict'
p677
sa(dp678
S'param'
p679
S'const char *restrict'
p680
sa(dp681
S'param'
p682
S'FILE *restrict'
p683
sasg26
I01
sg27
I00
sbasS'div'
p684
(lp685
(i__main__
Function
p686
(dp687
g6
S'/usr/include/stdlib.h:750:40'
p688
sg8
g684
sg9
S'div_t'
p689
sg11
S'/usr/include/stdlib.h'
p690
sg13
S'/usr/include/stdlib.h:749:1'
p691
sg15
(lp692
(dp693
S'param'
p694
S'int'
p695
sa(dp696
S'param'
p697
S'int'
p698
sasg26
I01
sg27
I00
sbasS'setstate'
p699
(lp700
(i__main__
Function
p701
(dp702
g6
S'/usr/include/stdlib.h:296:50 <Spelling=/usr/include/sys/cdefs.h:285:63>'
p703
sg8
g699
sg9
S'char *'
p704
sg11
S'/usr/include/stdlib.h'
p705
sg13
S'/usr/include/stdlib.h:296:1'
p706
sg15
(lp707
(dp708
S'param'
p709
S'char *'
p710
sasg26
I01
sg27
I00
sbasS'fread_unlocked'
p711
(lp712
(i__main__
Function
p713
(dp714
g6
S'/usr/include/stdio.h:740:47'
p715
sg8
g711
sg9
S'size_t'
p716
sg11
S'/usr/include/stdio.h'
p717
sg13
S'/usr/include/stdio.h:739:1'
p718
sg15
(lp719
(dp720
S'param'
p721
S'void *restrict'
p722
sa(dp723
S'param'
p724
S'size_t'
p725
sa(dp726
S'param'
p727
S'size_t'
p728
sa(dp729
S'param'
p730
S'FILE *restrict'
p731
sasg26
I01
sg27
I00
sbasS'gnu_dev_makedev'
p732
(lp733
(i__main__
Function
p734
(dp735
g6
S'/usr/include/sys/sysmacros.h:35:14 <Spelling=/usr/include/sys/cdefs.h:236:56>'
p736
sg8
g732
sg9
S'unsigned long long'
p737
sg11
S'/usr/include/sys/sysmacros.h'
p738
sg13
S'/usr/include/sys/sysmacros.h:33:1'
p739
sg15
(lp740
(dp741
S'param'
p742
S'unsigned int'
p743
sa(dp744
S'param'
p745
S'unsigned int'
p746
sasg26
I01
sg27
I00
sbasS'fputc_unlocked'
p747
(lp748
(i__main__
Function
p749
(dp750
g6
S'/usr/include/stdio.h:596:51'
p751
sg8
g747
sg9
S'int'
p752
sg11
S'/usr/include/stdio.h'
p753
sg13
S'/usr/include/stdio.h:596:1'
p754
sg15
(lp755
(dp756
S'param'
p757
S'int'
p758
sa(dp759
S'param'
p760
S'FILE *'
p761
sasg26
I01
sg27
I00
sbasS'nrand48_r'
p762
(lp763
(i__main__
Function
p764
(dp765
g6
S'/usr/include/stdlib.h:397:14 <Spelling=/usr/include/sys/cdefs.h:285:63>'
p766
sg8
g762
sg9
S'int'
p767
sg11
S'/usr/include/stdlib.h'
p768
sg13
S'/usr/include/stdlib.h:394:1'
p769
sg15
(lp770
(dp771
S'param'
p772
S'unsigned short [3]'
p773
sa(dp774
S'param'
p775
S'struct drand48_data *restrict'
p776
sa(dp777
S'param'
p778
S'long *restrict'
p779
sasg26
I01
sg27
I00
sbasS'tempnam'
p780
(lp781
(i__main__
Function
p782
(dp783
g6
S'/usr/include/stdio.h:230:14 <Spelling=/usr/include/sys/cdefs.h:211:58>'
p784
sg8
g780
sg9
S'char *'
p785
sg11
S'/usr/include/stdio.h'
p786
sg13
S'/usr/include/stdio.h:229:1'
p787
sg15
(lp788
(dp789
S'param'
p790
S'const char *'
p791
sa(dp792
S'param'
p793
S'const char *'
p794
sasg26
I01
sg27
I00
sbasS'tmpfile'
p795
(lp796
(i__main__
Function
p797
(dp798
g6
S'/usr/include/stdio.h:197:27'
p799
sg8
g795
sg9
S'FILE *'
p800
sg11
S'/usr/include/stdio.h'
p801
sg13
S'/usr/include/stdio.h:197:1'
p802
sg15
Nsg26
I01
sg27
I00
sbasS'vsscanf'
p803
(lp804
(i__main__
Function
p805
(dp806
g6
S'/usr/include/stdio.h:487:59'
p807
sg8
g803
sg9
S'int'
p808
sg11
S'/usr/include/stdio.h'
p809
sg13
S'/usr/include/stdio.h:485:1'
p810
sg15
(lp811
(dp812
S'param'
p813
S'const char *restrict'
p814
sa(dp815
S'param'
p816
S'const char *restrict'
p817
sa(dp818
S'param'
p819
S'__gnuc_va_list'
p820
sasg26
I01
sg27
I00
sba(i__main__
Function
p821
(dp822
g6
S'/usr/include/stdio.h:508:51'
p823
sg8
S'vsscanf'
p824
sg9
S'int'
p825
sg11
S'/usr/include/stdio.h'
p826
sg13
S'/usr/include/stdio.h:504:1'
p827
sg15
(lp828
(dp829
S'param'
p830
S'const char *restrict'
p831
sa(dp832
S'param'
p833
S'const char *restrict'
p834
sa(dp835
S'param'
p836
S'__gnuc_va_list'
p837
sasg26
I01
sg27
I00
sbasS'lldiv'
p838
(lp839
(i__main__
Function
p840
(dp841
g6
S'/usr/include/stdlib.h:759:40'
p842
sg8
g838
sg9
S'lldiv_t'
p843
sg11
S'/usr/include/stdlib.h'
p844
sg13
S'/usr/include/stdlib.h:757:15'
p845
sg15
(lp846
(dp847
S'param'
p848
S'long long'
p849
sa(dp850
S'param'
p851
S'long long'
p852
sasg26
I01
sg27
I00
sbasS'mkdtemp'
p853
(lp854
(i__main__
Function
p855
(dp856
g6
S'/usr/include/stdlib.h:623:49 <Spelling=/usr/include/sys/cdefs.h:285:63>'
p857
sg8
g853
sg9
S'char *'
p858
sg11
S'/usr/include/stdlib.h'
p859
sg13
S'/usr/include/stdlib.h:623:1'
p860
sg15
(lp861
(dp862
S'param'
p863
S'char *'
p864
sasg26
I01
sg27
I00
sbasS'snprintf'
p865
(lp866
(i__main__
Function
p867
(dp868
g6
S'/usr/include/stdio.h:390:62'
p869
sg8
g865
sg9
S'int'
p870
sg11
S'/usr/include/stdio.h'
p871
sg13
S'/usr/include/stdio.h:388:1'
p872
sg15
(lp873
(dp874
S'param'
p875
S'char *restrict'
p876
sa(dp877
S'param'
p878
S'size_t'
p879
sa(dp880
S'param'
p881
S'const char *restrict'
p882
sasg26
I01
sg27
I00
sbasS'fgetc'
p883
(lp884
(i__main__
Function
p885
(dp886
g6
S'/usr/include/stdio.h:533:33'
p887
sg8
g883
sg9
S'int'
p888
sg11
S'/usr/include/stdio.h'
p889
sg13
S'/usr/include/stdio.h:533:1'
p890
sg15
(lp891
(dp892
S'param'
p893
S'FILE *'
p894
sasg26
I01
sg27
I00
sbasS'pclose'
p895
(lp896
(i__main__
Function
p897
(dp898
g6
S'/usr/include/stdio.h:880:34'
p899
sg8
g895
sg9
S'int'
p900
sg11
S'/usr/include/stdio.h'
p901
sg13
S'/usr/include/stdio.h:880:1'
p902
sg15
(lp903
(dp904
S'param'
p905
S'FILE *'
p906
sasg26
I01
sg27
I00
sbasS'strtoull'
p907
(lp908
(i__main__
Function
p909
(dp910
g6
S'/usr/include/stdlib.h:177:14 <Spelling=/usr/include/sys/cdefs.h:285:63>'
p911
sg8
g907
sg9
S'unsigned long long'
p912
sg11
S'/usr/include/stdlib.h'
p913
sg13
S'/usr/include/stdlib.h:175:1'
p914
sg15
(lp915
(dp916
S'param'
p917
S'const char *restrict'
p918
sa(dp919
S'param'
p920
S'char **restrict'
p921
sa(dp922
S'param'
p923
S'int'
p924
sasg26
I01
sg27
I00
sbasS'llabs'
p925
(lp926
(i__main__
Function
p927
(dp928
g6
S'/usr/include/stdlib.h:741:40'
p929
sg8
g925
sg9
S'long long'
p930
sg11
S'/usr/include/stdlib.h'
p931
sg13
S'/usr/include/stdlib.h:740:15'
p932
sg15
(lp933
(dp934
S'param'
p935
S'long long'
p936
sasg26
I01
sg27
I00
sbasS'seed48'
p937
(lp938
(i__main__
Function
p939
(dp940
g6
S'/usr/include/stdlib.h:366:14 <Spelling=/usr/include/sys/cdefs.h:285:63>'
p941
sg8
g937
sg9
S'unsigned short *'
p942
sg11
S'/usr/include/stdlib.h'
p943
sg13
S'/usr/include/stdlib.h:365:1'
p944
sg15
(lp945
(dp946
S'param'
p947
S'unsigned short [3]'
p948
sasg26
I01
sg27
I00
sbasS'qgcvt'
p949
(lp950
(i__main__
Function
p951
(dp952
g6
S'/usr/include/stdlib.h:797:14 <Spelling=/usr/include/sys/cdefs.h:285:63>'
p953
sg8
g949
sg9
S'char *'
p954
sg11
S'/usr/include/stdlib.h'
p955
sg13
S'/usr/include/stdlib.h:796:1'
p956
sg15
(lp957
(dp958
S'param'
p959
S'long double'
p960
sa(dp961
S'param'
p962
S'int'
p963
sa(dp964
S'param'
p965
S'char *'
p966
sasg26
I01
sg27
I00
sbasS'lcong48_r'
p967
(lp968
(i__main__
Function
p969
(dp970
g6
S'/usr/include/stdlib.h:417:14 <Spelling=/usr/include/sys/cdefs.h:285:63>'
p971
sg8
g967
sg9
S'int'
p972
sg11
S'/usr/include/stdlib.h'
p973
sg13
S'/usr/include/stdlib.h:415:1'
p974
sg15
(lp975
(dp976
S'param'
p977
S'unsigned short [7]'
p978
sa(dp979
S'param'
p980
S'struct drand48_data *'
p981
sasg26
I01
sg27
I00
sbasS'quick_exit'
p982
(lp983
(i__main__
Function
p984
(dp985
g6
S'/usr/include/stdlib.h:510:76'
p986
sg8
g982
sg9
S'void'
p987
sg11
S'/usr/include/stdlib.h'
p988
sg13
S'/usr/include/stdlib.h:510:1'
p989
sg15
(lp990
(dp991
S'param'
p992
S'int'
p993
sasg26
I01
sg27
I00
sbasS'fileno_unlocked'
p994
(lp995
(i__main__
Function
p996
(dp997
g6
S'/usr/include/stdio.h:865:45 <Spelling=/usr/include/sys/cdefs.h:55:54>'
p998
sg8
g994
sg9
S'int'
p999
sg11
S'/usr/include/stdio.h'
p1000
sg13
S'/usr/include/stdio.h:865:1'
p1001
sg15
(lp1002
(dp1003
S'param'
p1004
S'FILE *'
p1005
sasg26
I01
sg27
I00
sbasS'fgets'
p1006
(lp1007
(i__main__
Function
p1008
(dp1009
g6
S'/usr/include/stdio.h:624:77'
p1010
sg8
g1006
sg9
S'char *'
p1011
sg11
S'/usr/include/stdio.h'
p1012
sg13
S'/usr/include/stdio.h:624:1'
p1013
sg15
(lp1014
(dp1015
S'param'
p1016
S'char *restrict'
p1017
sa(dp1018
S'param'
p1019
S'int'
p1020
sa(dp1021
S'param'
p1022
S'FILE *restrict'
p1023
sasg26
I01
sg27
I00
sbasS'jrand48'
p1024
(lp1025
(i__main__
Function
p1026
(dp1027
g6
S'/usr/include/stdlib.h:361:14 <Spelling=/usr/include/sys/cdefs.h:285:63>'
p1028
sg8
g1024
sg9
S'long'
p1029
sg11
S'/usr/include/stdlib.h'
p1030
sg13
S'/usr/include/stdlib.h:360:1'
p1031
sg15
(lp1032
(dp1033
S'param'
p1034
S'unsigned short [3]'
p1035
sasg26
I01
sg27
I00
sbasS'ctermid'
p1036
(lp1037
(i__main__
Function
p1038
(dp1039
g6
S'/usr/include/stdio.h:886:34 <Spelling=/usr/include/sys/cdefs.h:55:54>'
p1040
sg8
g1036
sg9
S'char *'
p1041
sg11
S'/usr/include/stdio.h'
p1042
sg13
S'/usr/include/stdio.h:886:1'
p1043
sg15
(lp1044
(dp1045
S'param'
p1046
S'char *'
p1047
sasg26
I01
sg27
I00
sbasS'mktemp'
p1048
(lp1049
(i__main__
Function
p1050
(dp1051
g6
S'/usr/include/stdlib.h:567:48 <Spelling=/usr/include/sys/cdefs.h:285:63>'
p1052
sg8
g1048
sg9
S'char *'
p1053
sg11
S'/usr/include/stdlib.h'
p1054
sg13
S'/usr/include/stdlib.h:567:1'
p1055
sg15
(lp1056
(dp1057
S'param'
p1058
S'char *'
p1059
sasg26
I01
sg27
I00
sbasS'initstate_r'
p1060
(lp1061
(i__main__
Function
p1062
(dp1063
g6
S'/usr/include/stdlib.h:324:14 <Spelling=/usr/include/sys/cdefs.h:285:63>'
p1064
sg8
g1060
sg9
S'int'
p1065
sg11
S'/usr/include/stdlib.h'
p1066
sg13
S'/usr/include/stdlib.h:321:1'
p1067
sg15
(lp1068
(dp1069
S'param'
p1070
S'unsigned int'
p1071
sa(dp1072
S'param'
p1073
S'char *restrict'
p1074
sa(dp1075
S'param'
p1076
S'size_t'
p1077
sa(dp1078
S'param'
p1079
S'struct random_data *restrict'
p1080
sasg26
I01
sg27
I00
sbasS'_IO_feof'
p1081
(lp1082
(i__main__
Function
p1083
(dp1084
g6
S'/usr/include/libio.h:431:38 <Spelling=/usr/include/sys/cdefs.h:55:54>'
p1085
sg8
g1081
sg9
S'int'
p1086
sg11
S'/usr/include/libio.h'
p1087
sg13
S'/usr/include/libio.h:431:1'
p1088
sg15
(lp1089
(dp1090
S'param'
p1091
S'_IO_FILE *'
p1092
sasg26
I01
sg27
I00
sbasS'getchar_unlocked'
p1093
(lp1094
(i__main__
Function
p1095
(dp1096
g6
S'/usr/include/stdio.h:553:34'
p1097
sg8
g1093
sg9
S'int'
p1098
sg11
S'/usr/include/stdio.h'
p1099
sg13
S'/usr/include/stdio.h:553:1'
p1100
sg15
Nsg26
I01
sg27
I00
sbasS'atexit'
p1101
(lp1102
(i__main__
Function
p1103
(dp1104
g6
S'/usr/include/stdlib.h:480:51 <Spelling=/usr/include/sys/cdefs.h:285:63>'
p1105
sg8
g1101
sg9
S'int'
p1106
sg11
S'/usr/include/stdlib.h'
p1107
sg13
S'/usr/include/stdlib.h:480:1'
p1108
sg15
(lp1109
(dp1110
S'param'
p1111
S'fnptr void (*)(void)'
p1112
sasg26
I01
sg27
I00
sbasS'fgetc_unlocked'
p1113
(lp1114
(i__main__
Function
p1115
(dp1116
g6
S'/usr/include/stdio.h:563:42'
p1117
sg8
g1113
sg9
S'int'
p1118
sg11
S'/usr/include/stdio.h'
p1119
sg13
S'/usr/include/stdio.h:563:1'
p1120
sg15
(lp1121
(dp1122
S'param'
p1123
S'FILE *'
p1124
sasg26
I01
sg27
I00
sbasS'fgetpos'
p1125
(lp1126
(i__main__
Function
p1127
(dp1128
g6
S'/usr/include/stdio.h:800:72'
p1129
sg8
g1125
sg9
S'int'
p1130
sg11
S'/usr/include/stdio.h'
p1131
sg13
S'/usr/include/stdio.h:800:1'
p1132
sg15
(lp1133
(dp1134
S'param'
p1135
S'FILE *restrict'
p1136
sa(dp1137
S'param'
p1138
S'fpos_t *restrict'
p1139
sasg26
I01
sg27
I00
sbasS'fsetpos'
p1140
(lp1141
(i__main__
Function
p1142
(dp1143
g6
S'/usr/include/stdio.h:805:56'
p1144
sg8
g1140
sg9
S'int'
p1145
sg11
S'/usr/include/stdio.h'
p1146
sg13
S'/usr/include/stdio.h:805:1'
p1147
sg15
(lp1148
(dp1149
S'param'
p1150
S'FILE *'
p1151
sa(dp1152
S'param'
p1153
S'const fpos_t *'
p1154
sasg26
I01
sg27
I00
sbasS'ftell'
p1155
(lp1156
(i__main__
Function
p1157
(dp1158
g6
S'/usr/include/stdio.h:756:38'
p1159
sg8
g1155
sg9
S'long'
p1160
sg11
S'/usr/include/stdio.h'
p1161
sg13
S'/usr/include/stdio.h:756:1'
p1162
sg15
(lp1163
(dp1164
S'param'
p1165
S'FILE *'
p1166
sasg26
I01
sg27
I00
sbasS'abs'
p1167
(lp1168
(i__main__
Function
p1169
(dp1170
g6
S'/usr/include/stdlib.h:735:60'
p1171
sg8
g1167
sg9
S'int'
p1172
sg11
S'/usr/include/stdlib.h'
p1173
sg13
S'/usr/include/stdlib.h:735:1'
p1174
sg15
(lp1175
(dp1176
S'param'
p1177
S'int'
p1178
sasg26
I01
sg27
I00
sbasS'posix_memalign'
p1179
(lp1180
(i__main__
Function
p1181
(dp1182
g6
S'/usr/include/stdlib.h:465:14 <Spelling=/usr/include/sys/cdefs.h:285:63>'
p1183
sg8
g1179
sg9
S'int'
p1184
sg11
S'/usr/include/stdlib.h'
p1185
sg13
S'/usr/include/stdlib.h:464:1'
p1186
sg15
(lp1187
(dp1188
S'param'
p1189
S'void **'
p1190
sa(dp1191
S'param'
p1192
S'size_t'
p1193
sa(dp1194
S'param'
p1195
S'size_t'
p1196
sasg26
I01
sg27
I00
sbasS'_IO_padn'
p1197
(lp1198
(i__main__
Function
p1199
(dp1200
g6
S'/usr/include/libio.h:463:58'
p1201
sg8
g1197
sg9
S'__ssize_t'
p1202
sg11
S'/usr/include/libio.h'
p1203
sg13
S'/usr/include/libio.h:463:1'
p1204
sg15
(lp1205
(dp1206
S'param'
p1207
S'_IO_FILE *'
p1208
sa(dp1209
S'param'
p1210
S'int'
p1211
sa(dp1212
S'param'
p1213
S'__ssize_t'
p1214
sasg26
I01
sg27
I00
sbasS'vscanf'
p1215
(lp1216
(i__main__
Function
p1217
(dp1218
g6
S'/usr/include/stdio.h:482:51'
p1219
sg8
g1215
sg9
S'int'
p1220
sg11
S'/usr/include/stdio.h'
p1221
sg13
S'/usr/include/stdio.h:481:1'
p1222
sg15
(lp1223
(dp1224
S'param'
p1225
S'const char *restrict'
p1226
sa(dp1227
S'param'
p1228
S'__gnuc_va_list'
p1229
sasg26
I01
sg27
I00
sba(i__main__
Function
p1230
(dp1231
g6
S'/usr/include/stdio.h:503:51'
p1232
sg8
S'vscanf'
p1233
sg9
S'int'
p1234
sg11
S'/usr/include/stdio.h'
p1235
sg13
S'/usr/include/stdio.h:501:1'
p1236
sg15
(lp1237
(dp1238
S'param'
p1239
S'const char *restrict'
p1240
sa(dp1241
S'param'
p1242
S'__gnuc_va_list'
p1243
sasg26
I01
sg27
I00
sbasS'vdprintf'
p1244
(lp1245
(i__main__
Function
p1246
(dp1247
g6
S'/usr/include/stdio.h:416:52'
p1248
sg8
g1244
sg9
S'int'
p1249
sg11
S'/usr/include/stdio.h'
p1250
sg13
S'/usr/include/stdio.h:414:1'
p1251
sg15
(lp1252
(dp1253
S'param'
p1254
S'int'
p1255
sa(dp1256
S'param'
p1257
S'const char *restrict'
p1258
sa(dp1259
S'param'
p1260
S'__gnuc_va_list'
p1261
sasg26
I01
sg27
I00
sbasS'mbstowcs'
p1262
(lp1263
(i__main__
Function
p1264
(dp1265
g6
S'/usr/include/stdlib.h:835:44 <Spelling=/usr/include/sys/cdefs.h:55:54>'
p1266
sg8
g1262
sg9
S'size_t'
p1267
sg11
S'/usr/include/stdlib.h'
p1268
sg13
S'/usr/include/stdlib.h:834:1'
p1269
sg15
(lp1270
(dp1271
S'param'
p1272
S'wchar_t *restrict'
p1273
sa(dp1274
S'param'
p1275
S'const char *restrict'
p1276
sa(dp1277
S'param'
p1278
S'size_t'
p1279
sasg26
I01
sg27
I00
sbasS'__getdelim'
p1280
(lp1281
(i__main__
Function
p1282
(dp1283
g6
S'/usr/include/stdio.h:669:36'
p1284
sg8
g1280
sg9
S'__ssize_t'
p1285
sg11
S'/usr/include/stdio.h'
p1286
sg13
S'/usr/include/stdio.h:667:1'
p1287
sg15
(lp1288
(dp1289
S'param'
p1290
S'char **restrict'
p1291
sa(dp1292
S'param'
p1293
S'size_t *restrict'
p1294
sa(dp1295
S'param'
p1296
S'int'
p1297
sa(dp1298
S'param'
p1299
S'FILE *restrict'
p1300
sasg26
I01
sg27
I00
sbasS'__overflow'
p1301
(lp1302
(i__main__
Function
p1303
(dp1304
g6
S'/usr/include/libio.h:387:39'
p1305
sg8
g1301
sg9
S'int'
p1306
sg11
S'/usr/include/libio.h'
p1307
sg13
S'/usr/include/libio.h:387:1'
p1308
sg15
(lp1309
(dp1310
S'param'
p1311
S'_IO_FILE *'
p1312
sa(dp1313
S'param'
p1314
S'int'
p1315
sasg26
I01
sg27
I00
sbasS'ferror'
p1316
(lp1317
(i__main__
Function
p1318
(dp1319
g6
S'/usr/include/stdio.h:832:36 <Spelling=/usr/include/sys/cdefs.h:55:54>'
p1320
sg8
g1316
sg9
S'int'
p1321
sg11
S'/usr/include/stdio.h'
p1322
sg13
S'/usr/include/stdio.h:832:1'
p1323
sg15
(lp1324
(dp1325
S'param'
p1326
S'FILE *'
p1327
sasg26
I01
sg27
I00
sbasS'free'
p1328
(lp1329
(i__main__
Function
p1330
(dp1331
g6
S'/usr/include/stdlib.h:444:32 <Spelling=/usr/include/sys/cdefs.h:55:54>'
p1332
sg8
g1328
sg9
S'void'
p1333
sg11
S'/usr/include/stdlib.h'
p1334
sg13
S'/usr/include/stdlib.h:444:1'
p1335
sg15
(lp1336
(dp1337
S'param'
p1338
S'void *'
p1339
sasg26
I01
sg27
I00
sbasS'labs'
p1340
(lp1341
(i__main__
Function
p1342
(dp1343
g6
S'/usr/include/stdlib.h:736:71'
p1344
sg8
g1340
sg9
S'long'
p1345
sg11
S'/usr/include/stdlib.h'
p1346
sg13
S'/usr/include/stdlib.h:736:1'
p1347
sg15
(lp1348
(dp1349
S'param'
p1350
S'long'
p1351
sasg26
I01
sg27
I00
sbasS'open_memstream'
p1352
(lp1353
(i__main__
Function
p1354
(dp1355
g6
S'/usr/include/stdio.h:327:66 <Spelling=/usr/include/sys/cdefs.h:55:54>'
p1356
sg8
g1352
sg9
S'FILE *'
p1357
sg11
S'/usr/include/stdio.h'
p1358
sg13
S'/usr/include/stdio.h:327:1'
p1359
sg15
(lp1360
(dp1361
S'param'
p1362
S'char **'
p1363
sa(dp1364
S'param'
p1365
S'size_t *'
p1366
sasg26
I01
sg27
I00
sbasS'setstate_r'
p1367
(lp1368
(i__main__
Function
p1369
(dp1370
g6
S'/usr/include/stdlib.h:328:14 <Spelling=/usr/include/sys/cdefs.h:285:63>'
p1371
sg8
g1367
sg9
S'int'
p1372
sg11
S'/usr/include/stdlib.h'
p1373
sg13
S'/usr/include/stdlib.h:326:1'
p1374
sg15
(lp1375
(dp1376
S'param'
p1377
S'char *restrict'
p1378
sa(dp1379
S'param'
p1380
S'struct random_data *restrict'
p1381
sasg26
I01
sg27
I00
sbasS'tmpnam_r'
p1382
(lp1383
(i__main__
Function
p1384
(dp1385
g6
S'/usr/include/stdio.h:217:35 <Spelling=/usr/include/sys/cdefs.h:55:54>'
p1386
sg8
g1382
sg9
S'char *'
p1387
sg11
S'/usr/include/stdio.h'
p1388
sg13
S'/usr/include/stdio.h:217:1'
p1389
sg15
(lp1390
(dp1391
S'param'
p1392
S'char *'
p1393
sasg26
I01
sg27
I00
sbasS'seed48_r'
p1394
(lp1395
(i__main__
Function
p1396
(dp1397
g6
S'/usr/include/stdlib.h:413:47 <Spelling=/usr/include/sys/cdefs.h:285:63>'
p1398
sg8
g1394
sg9
S'int'
p1399
sg11
S'/usr/include/stdlib.h'
p1400
sg13
S'/usr/include/stdlib.h:412:1'
p1401
sg15
(lp1402
(dp1403
S'param'
p1404
S'unsigned short [3]'
p1405
sa(dp1406
S'param'
p1407
S'struct drand48_data *'
p1408
sasg26
I01
sg27
I00
sbasS'fseeko'
p1409
(lp1410
(i__main__
Function
p1411
(dp1412
g6
S'/usr/include/stdio.h:775:63'
p1413
sg8
g1409
sg9
S'int'
p1414
sg11
S'/usr/include/stdio.h'
p1415
sg13
S'/usr/include/stdio.h:775:1'
p1416
sg15
(lp1417
(dp1418
S'param'
p1419
S'FILE *'
p1420
sa(dp1421
S'param'
p1422
S'__off_t'
p1423
sa(dp1424
S'param'
p1425
S'int'
p1426
sasg26
I01
sg27
I00
sbasS'__uflow'
p1427
(lp1428
(i__main__
Function
p1429
(dp1430
g6
S'/usr/include/libio.h:386:31'
p1431
sg8
g1427
sg9
S'int'
p1432
sg11
S'/usr/include/libio.h'
p1433
sg13
S'/usr/include/libio.h:386:1'
p1434
sg15
(lp1435
(dp1436
S'param'
p1437
S'_IO_FILE *'
p1438
sasg26
I01
sg27
I00
sbasS'putenv'
p1439
(lp1440
(i__main__
Function
p1441
(dp1442
g6
S'/usr/include/stdlib.h:539:44 <Spelling=/usr/include/sys/cdefs.h:285:63>'
p1443
sg8
g1439
sg9
S'int'
p1444
sg11
S'/usr/include/stdlib.h'
p1445
sg13
S'/usr/include/stdlib.h:539:1'
p1446
sg15
(lp1447
(dp1448
S'param'
p1449
S'char *'
p1450
sasg26
I01
sg27
I00
sbasS'clearenv'
p1451
(lp1452
(i__main__
Function
p1453
(dp1454
g6
S'/usr/include/stdlib.h:556:28 <Spelling=/usr/include/sys/cdefs.h:55:54>'
p1455
sg8
g1451
sg9
S'int'
p1456
sg11
S'/usr/include/stdlib.h'
p1457
sg13
S'/usr/include/stdlib.h:556:1'
p1458
sg15
Nsg26
I01
sg27
I00
sbasS'popen'
p1459
(lp1460
(i__main__
Function
p1461
(dp1462
g6
S'/usr/include/stdio.h:874:63'
p1463
sg8
g1459
sg9
S'FILE *'
p1464
sg11
S'/usr/include/stdio.h'
p1465
sg13
S'/usr/include/stdio.h:874:1'
p1466
sg15
(lp1467
(dp1468
S'param'
p1469
S'const char *'
p1470
sa(dp1471
S'param'
p1472
S'const char *'
p1473
sasg26
I01
sg27
I00
sbasS'rpmatch'
p1474
(lp1475
(i__main__
Function
p1476
(dp1477
g6
S'/usr/include/stdlib.h:848:53 <Spelling=/usr/include/sys/cdefs.h:285:63>'
p1478
sg8
g1474
sg9
S'int'
p1479
sg11
S'/usr/include/stdlib.h'
p1480
sg13
S'/usr/include/stdlib.h:848:1'
p1481
sg15
(lp1482
(dp1483
S'param'
p1484
S'const char *'
p1485
sasg26
I01
sg27
I00
sbasS'_IO_ferror'
p1486
(lp1487
(i__main__
Function
p1488
(dp1489
g6
S'/usr/include/libio.h:432:40 <Spelling=/usr/include/sys/cdefs.h:55:54>'
p1490
sg8
g1486
sg9
S'int'
p1491
sg11
S'/usr/include/libio.h'
p1492
sg13
S'/usr/include/libio.h:432:1'
p1493
sg15
(lp1494
(dp1495
S'param'
p1496
S'_IO_FILE *'
p1497
sasg26
I01
sg27
I00
sbasS'bsearch'
p1498
(lp1499
(i__main__
Function
p1500
(dp1501
g6
S'/usr/include/stdlib.h:717:6 <Spelling=/usr/include/sys/cdefs.h:285:63>'
p1502
sg8
g1498
sg9
S'void *'
p1503
sg11
S'/usr/include/stdlib.h'
p1504
sg13
S'/usr/include/stdlib.h:715:1'
p1505
sg15
(lp1506
(dp1507
S'param'
p1508
S'const void *'
p1509
sa(dp1510
S'param'
p1511
S'const void *'
p1512
sa(dp1513
S'param'
p1514
S'size_t'
p1515
sa(dp1516
S'param'
p1517
S'size_t'
p1518
sa(dp1519
S'param'
p1520
S'fnptr __compar_fn_t'
p1521
sasg26
I01
sg27
I00
sbasS'ldiv'
p1522
(lp1523
(i__main__
Function
p1524
(dp1525
g6
S'/usr/include/stdlib.h:752:40'
p1526
sg8
g1522
sg9
S'ldiv_t'
p1527
sg11
S'/usr/include/stdlib.h'
p1528
sg13
S'/usr/include/stdlib.h:751:1'
p1529
sg15
(lp1530
(dp1531
S'param'
p1532
S'long'
p1533
sa(dp1534
S'param'
p1535
S'long'
p1536
sasg26
I01
sg27
I00
sbasS'srandom'
p1537
(lp1538
(i__main__
Function
p1539
(dp1540
g6
S'/usr/include/stdlib.h:285:43 <Spelling=/usr/include/sys/cdefs.h:55:54>'
p1541
sg8
g1537
sg9
S'void'
p1542
sg11
S'/usr/include/stdlib.h'
p1543
sg13
S'/usr/include/stdlib.h:285:1'
p1544
sg15
(lp1545
(dp1546
S'param'
p1547
S'unsigned int'
p1548
sasg26
I01
sg27
I00
sbasS'rand'
p1549
(lp1550
(i__main__
Function
p1551
(dp1552
g6
S'/usr/include/stdlib.h:335:24 <Spelling=/usr/include/sys/cdefs.h:55:54>'
p1553
sg8
g1549
sg9
S'int'
p1554
sg11
S'/usr/include/stdlib.h'
p1555
sg13
S'/usr/include/stdlib.h:335:1'
p1556
sg15
Nsg26
I01
sg27
I00
sbasS'_IO_flockfile'
p1557
(lp1558
(i__main__
Function
p1559
(dp1560
g6
S'/usr/include/libio.h:440:40 <Spelling=/usr/include/sys/cdefs.h:55:54>'
p1561
sg8
g1557
sg9
S'void'
p1562
sg11
S'/usr/include/libio.h'
p1563
sg13
S'/usr/include/libio.h:440:1'
p1564
sg15
(lp1565
(dp1566
S'param'
p1567
S'_IO_FILE *'
p1568
sasg26
I01
sg27
I00
sbasS'mrand48'
p1569
(lp1570
(i__main__
Function
p1571
(dp1572
g6
S'/usr/include/stdlib.h:359:32 <Spelling=/usr/include/sys/cdefs.h:55:54>'
p1573
sg8
g1569
sg9
S'long'
p1574
sg11
S'/usr/include/stdlib.h'
p1575
sg13
S'/usr/include/stdlib.h:359:1'
p1576
sg15
Nsg26
I01
sg27
I00
sbasS'fflush_unlocked'
p1577
(lp1578
(i__main__
Function
p1579
(dp1580
g6
S'/usr/include/stdio.h:254:43'
p1581
sg8
g1577
sg9
S'int'
p1582
sg11
S'/usr/include/stdio.h'
p1583
sg13
S'/usr/include/stdio.h:254:1'
p1584
sg15
(lp1585
(dp1586
S'param'
p1587
S'FILE *'
p1588
sasg26
I01
sg27
I00
sbasS'realloc'
p1589
(lp1590
(i__main__
Function
p1591
(dp1592
g6
S'/usr/include/stdlib.h:442:14 <Spelling=/usr/include/sys/cdefs.h:294:43>'
p1593
sg8
g1589
sg9
S'void *'
p1594
sg11
S'/usr/include/stdlib.h'
p1595
sg13
S'/usr/include/stdlib.h:441:1'
p1596
sg15
(lp1597
(dp1598
S'param'
p1599
S'void *'
p1600
sa(dp1601
S'param'
p1602
S'size_t'
p1603
sasg26
I01
sg27
I00
sbasS'mbtowc'
p1604
(lp1605
(i__main__
Function
p1606
(dp1607
g6
S'/usr/include/stdlib.h:827:46 <Spelling=/usr/include/sys/cdefs.h:55:54>'
p1608
sg8
g1604
sg9
S'int'
p1609
sg11
S'/usr/include/stdlib.h'
p1610
sg13
S'/usr/include/stdlib.h:826:1'
p1611
sg15
(lp1612
(dp1613
S'param'
p1614
S'wchar_t *restrict'
p1615
sa(dp1616
S'param'
p1617
S'const char *restrict'
p1618
sa(dp1619
S'param'
p1620
S'size_t'
p1621
sasg26
I01
sg27
I00
sbasS'alloca'
p1622
(lp1623
(i__main__
Function
p1624
(dp1625
g6
S'/usr/include/alloca.h:32:37 <Spelling=/usr/include/sys/cdefs.h:55:54>'
p1626
sg8
g1622
sg9
S'void *'
p1627
sg11
S'/usr/include/alloca.h'
p1628
sg13
S'/usr/include/alloca.h:32:1'
p1629
sg15
(lp1630
(dp1631
S'param'
p1632
S'size_t'
p1633
sasg26
I01
sg27
I00
sbasS'qecvt'
p1634
(lp1635
(i__main__
Function
p1636
(dp1637
g6
S'/usr/include/stdlib.h:792:14 <Spelling=/usr/include/sys/cdefs.h:285:63>'
p1638
sg8
g1634
sg9
S'char *'
p1639
sg11
S'/usr/include/stdlib.h'
p1640
sg13
S'/usr/include/stdlib.h:790:1'
p1641
sg15
(lp1642
(dp1643
S'param'
p1644
S'long double'
p1645
sa(dp1646
S'param'
p1647
S'int'
p1648
sa(dp1649
S'param'
p1650
S'int *restrict'
p1651
sa(dp1652
S'param'
p1653
S'int *restrict'
p1654
sasg26
I01
sg27
I00
sbasS'_IO_seekoff'
p1655
(lp1656
(i__main__
Function
p1657
(dp1658
g6
S'/usr/include/libio.h:466:66'
p1659
sg8
g1655
sg9
S'__off64_t'
p1660
sg11
S'/usr/include/libio.h'
p1661
sg13
S'/usr/include/libio.h:466:1'
p1662
sg15
(lp1663
(dp1664
S'param'
p1665
S'_IO_FILE *'
p1666
sa(dp1667
S'param'
p1668
S'__off64_t'
p1669
sa(dp1670
S'param'
p1671
S'int'
p1672
sa(dp1673
S'param'
p1674
S'int'
p1675
sasg26
I01
sg27
I00
sbasS'printf'
p1676
(lp1677
(i__main__
Function
p1678
(dp1679
g6
S'/usr/include/stdio.h:364:56'
p1680
sg8
g1676
sg9
S'int'
p1681
sg11
S'/usr/include/stdio.h'
p1682
sg13
S'/usr/include/stdio.h:364:1'
p1683
sg15
(lp1684
(dp1685
S'param'
p1686
S'const char *restrict'
p1687
sasg26
I01
sg27
I00
sbasS'fmemopen'
p1688
(lp1689
(i__main__
Function
p1690
(dp1691
g6
S'/usr/include/stdio.h:322:3 <Spelling=/usr/include/sys/cdefs.h:55:54>'
p1692
sg8
g1688
sg9
S'FILE *'
p1693
sg11
S'/usr/include/stdio.h'
p1694
sg13
S'/usr/include/stdio.h:321:1'
p1695
sg15
(lp1696
(dp1697
S'param'
p1698
S'void *'
p1699
sa(dp1700
S'param'
p1701
S'size_t'
p1702
sa(dp1703
S'param'
p1704
S'const char *'
p1705
sasg26
I01
sg27
I00
sbasS'fopen'
p1706
(lp1707
(i__main__
Function
p1708
(dp1709
g6
S'/usr/include/stdio.h:275:37'
p1710
sg8
g1706
sg9
S'FILE *'
p1711
sg11
S'/usr/include/stdio.h'
p1712
sg13
S'/usr/include/stdio.h:274:1'
p1713
sg15
(lp1714
(dp1715
S'param'
p1716
S'const char *restrict'
p1717
sa(dp1718
S'param'
p1719
S'const char *restrict'
p1720
sasg26
I01
sg27
I00
sbasS'select'
p1721
(lp1722
(i__main__
Function
p1723
(dp1724
g6
S'/usr/include/sys/select.h:111:42'
p1725
sg8
g1721
sg9
S'int'
p1726
sg11
S'/usr/include/sys/select.h'
p1727
sg13
S'/usr/include/sys/select.h:108:1'
p1728
sg15
(lp1729
(dp1730
S'param'
p1731
S'int'
p1732
sa(dp1733
S'param'
p1734
S'fd_set *restrict'
p1735
sa(dp1736
S'param'
p1737
S'fd_set *restrict'
p1738
sa(dp1739
S'param'
p1740
S'fd_set *restrict'
p1741
sa(dp1742
S'param'
p1743
S'struct timeval *restrict'
p1744
sasg26
I01
sg27
I00
sbasS'getchar'
p1745
(lp1746
(i__main__
Function
p1747
(dp1748
g6
S'/usr/include/stdio.h:540:25'
p1749
sg8
g1745
sg9
S'int'
p1750
sg11
S'/usr/include/stdio.h'
p1751
sg13
S'/usr/include/stdio.h:540:1'
p1752
sg15
Nsg26
I01
sg27
I00
sbasS'putw'
p1753
(lp1754
(i__main__
Function
p1755
(dp1756
g6
S'/usr/include/stdio.h:615:41'
p1757
sg8
g1753
sg9
S'int'
p1758
sg11
S'/usr/include/stdio.h'
p1759
sg13
S'/usr/include/stdio.h:615:1'
p1760
sg15
(lp1761
(dp1762
S'param'
p1763
S'int'
p1764
sa(dp1765
S'param'
p1766
S'FILE *'
p1767
sasg26
I01
sg27
I00
sbasS'getsubopt'
p1768
(lp1769
(i__main__
Function
p1770
(dp1771
g6
S'/usr/include/stdlib.h:862:14 <Spelling=/usr/include/sys/cdefs.h:285:63>'
p1772
sg8
g1768
sg9
S'int'
p1773
sg11
S'/usr/include/stdlib.h'
p1774
sg13
S'/usr/include/stdlib.h:859:1'
p1775
sg15
(lp1776
(dp1777
S'param'
p1778
S'char **restrict'
p1779
sa(dp1780
S'param'
p1781
S'char *const *restrict'
p1782
sa(dp1783
S'param'
p1784
S'char **restrict'
p1785
sasg26
I01
sg27
I00
sbasS'ecvt'
p1786
(lp1787
(i__main__
Function
p1788
(dp1789
g6
S'/usr/include/stdlib.h:773:38 <Spelling=/usr/include/sys/cdefs.h:285:63>'
p1790
sg8
g1786
sg9
S'char *'
p1791
sg11
S'/usr/include/stdlib.h'
p1792
sg13
S'/usr/include/stdlib.h:772:1'
p1793
sg15
(lp1794
(dp1795
S'param'
p1796
S'double'
p1797
sa(dp1798
S'param'
p1799
S'int'
p1800
sa(dp1801
S'param'
p1802
S'int *restrict'
p1803
sa(dp1804
S'param'
p1805
S'int *restrict'
p1806
sasg26
I01
sg27
I00
sbasS'puts'
p1807
(lp1808
(i__main__
Function
p1809
(dp1810
g6
S'/usr/include/stdio.h:697:33'
p1811
sg8
g1807
sg9
S'int'
p1812
sg11
S'/usr/include/stdio.h'
p1813
sg13
S'/usr/include/stdio.h:697:1'
p1814
sg15
(lp1815
(dp1816
S'param'
p1817
S'const char *'
p1818
sasg26
I01
sg27
I00
sbasS'fdopen'
p1819
(lp1820
(i__main__
Function
p1821
(dp1822
g6
S'/usr/include/stdio.h:308:53 <Spelling=/usr/include/sys/cdefs.h:55:54>'
p1823
sg8
g1819
sg9
S'FILE *'
p1824
sg11
S'/usr/include/stdio.h'
p1825
sg13
S'/usr/include/stdio.h:308:1'
p1826
sg15
(lp1827
(dp1828
S'param'
p1829
S'int'
p1830
sa(dp1831
S'param'
p1832
S'const char *'
p1833
sasg26
I01
sg27
I00
sbasS'clearerr_unlocked'
p1834
(lp1835
(i__main__
Function
p1836
(dp1837
g6
S'/usr/include/stdio.h:837:48 <Spelling=/usr/include/sys/cdefs.h:55:54>'
p1838
sg8
g1834
sg9
S'void'
p1839
sg11
S'/usr/include/stdio.h'
p1840
sg13
S'/usr/include/stdio.h:837:1'
p1841
sg15
(lp1842
(dp1843
S'param'
p1844
S'FILE *'
p1845
sasg26
I01
sg27
I00
sbasS'scanf'
p1846
(lp1847
(i__main__
Function
p1848
(dp1849
g6
S'/usr/include/stdio.h:433:55'
p1850
sg8
g1846
sg9
S'int'
p1851
sg11
S'/usr/include/stdio.h'
p1852
sg13
S'/usr/include/stdio.h:433:1'
p1853
sg15
(lp1854
(dp1855
S'param'
p1856
S'const char *restrict'
p1857
sasg26
I01
sg27
I00
sba(i__main__
Function
p1858
(dp1859
g6
S'/usr/include/stdio.h:448:12 <Spelling=/usr/include/sys/cdefs.h:177:79>'
p1860
sg8
S'scanf'
p1861
sg9
S'int'
p1862
sg11
S'/usr/include/stdio.h'
p1863
sg13
S'/usr/include/stdio.h:448:1'
p1864
sg15
(lp1865
(dp1866
S'param'
p1867
S'const char *restrict'
p1868
sasg26
I01
sg27
I00
sbasS'aligned_alloc'
p1869
(lp1870
(i__main__
Function
p1871
(dp1872
g6
S'/usr/include/stdlib.h:471:14 <Spelling=/usr/include/sys/cdefs.h:211:58>'
p1873
sg8
g1869
sg9
S'void *'
p1874
sg11
S'/usr/include/stdlib.h'
p1875
sg13
S'/usr/include/stdlib.h:470:1'
p1876
sg15
(lp1877
(dp1878
S'param'
p1879
S'size_t'
p1880
sa(dp1881
S'param'
p1882
S'size_t'
p1883
sasg26
I01
sg27
I00
sbasS'qsort'
p1884
(lp1885
(i__main__
Function
p1886
(dp1887
g6
S'/usr/include/stdlib.h:726:30 <Spelling=/usr/include/sys/cdefs.h:285:63>'
p1888
sg8
g1884
sg9
S'void'
p1889
sg11
S'/usr/include/stdlib.h'
p1890
sg13
S'/usr/include/stdlib.h:725:1'
p1891
sg15
(lp1892
(dp1893
S'param'
p1894
S'void *'
p1895
sa(dp1896
S'param'
p1897
S'size_t'
p1898
sa(dp1899
S'param'
p1900
S'size_t'
p1901
sa(dp1902
S'param'
p1903
S'fnptr __compar_fn_t'
p1904
sasg26
I01
sg27
I00
sbasS'system'
p1905
(lp1906
(i__main__
Function
p1907
(dp1908
g6
S'/usr/include/stdlib.h:677:41'
p1909
sg8
g1905
sg9
S'int'
p1910
sg11
S'/usr/include/stdlib.h'
p1911
sg13
S'/usr/include/stdlib.h:677:1'
p1912
sg15
(lp1913
(dp1914
S'param'
p1915
S'const char *'
p1916
sasg26
I01
sg27
I00
sbasS'gnu_dev_major'
p1917
(lp1918
(i__main__
Function
p1919
(dp1920
g6
S'/usr/include/sys/sysmacros.h:28:14 <Spelling=/usr/include/sys/cdefs.h:236:56>'
p1921
sg8
g1917
sg9
S'unsigned int'
p1922
sg11
S'/usr/include/sys/sysmacros.h'
p1923
sg13
S'/usr/include/sys/sysmacros.h:27:1'
p1924
sg15
(lp1925
(dp1926
S'param'
p1927
S'unsigned long long'
p1928
sasg26
I01
sg27
I00
sbasS'putc'
p1929
(lp1930
(i__main__
Function
p1931
(dp1932
g6
S'/usr/include/stdio.h:576:41'
p1933
sg8
g1929
sg9
S'int'
p1934
sg11
S'/usr/include/stdio.h'
p1935
sg13
S'/usr/include/stdio.h:576:1'
p1936
sg15
(lp1937
(dp1938
S'param'
p1939
S'int'
p1940
sa(dp1941
S'param'
p1942
S'FILE *'
p1943
sasg26
I01
sg27
I00
sbasS'dprintf'
p1944
(lp1945
(i__main__
Function
p1946
(dp1947
g6
S'/usr/include/stdio.h:418:52'
p1948
sg8
g1944
sg9
S'int'
p1949
sg11
S'/usr/include/stdio.h'
p1950
sg13
S'/usr/include/stdio.h:417:1'
p1951
sg15
(lp1952
(dp1953
S'param'
p1954
S'int'
p1955
sa(dp1956
S'param'
p1957
S'const char *restrict'
p1958
sasg26
I01
sg27
I00
sbasS'fcvt_r'
p1959
(lp1960
(i__main__
Function
p1961
(dp1962
g6
S'/usr/include/stdlib.h:807:28 <Spelling=/usr/include/sys/cdefs.h:285:63>'
p1963
sg8
g1959
sg9
S'int'
p1964
sg11
S'/usr/include/stdlib.h'
p1965
sg13
S'/usr/include/stdlib.h:805:1'
p1966
sg15
(lp1967
(dp1968
S'param'
p1969
S'double'
p1970
sa(dp1971
S'param'
p1972
S'int'
p1973
sa(dp1974
S'param'
p1975
S'int *restrict'
p1976
sa(dp1977
S'param'
p1978
S'int *restrict'
p1979
sa(dp1980
S'param'
p1981
S'char *restrict'
p1982
sa(dp1983
S'param'
p1984
S'size_t'
p1985
sasg26
I01
sg27
I00
sbasS'ecvt_r'
p1986
(lp1987
(i__main__
Function
p1988
(dp1989
g6
S'/usr/include/stdlib.h:804:28 <Spelling=/usr/include/sys/cdefs.h:285:63>'
p1990
sg8
g1986
sg9
S'int'
p1991
sg11
S'/usr/include/stdlib.h'
p1992
sg13
S'/usr/include/stdlib.h:802:1'
p1993
sg15
(lp1994
(dp1995
S'param'
p1996
S'double'
p1997
sa(dp1998
S'param'
p1999
S'int'
p2000
sa(dp2001
S'param'
p2002
S'int *restrict'
p2003
sa(dp2004
S'param'
p2005
S'int *restrict'
p2006
sa(dp2007
S'param'
p2008
S'char *restrict'
p2009
sa(dp2010
S'param'
p2011
S'size_t'
p2012
sasg26
I01
sg27
I00
sbasS'srand'
p2013
(lp2014
(i__main__
Function
p2015
(dp2016
g6
S'/usr/include/stdlib.h:337:41 <Spelling=/usr/include/sys/cdefs.h:55:54>'
p2017
sg8
g2013
sg9
S'void'
p2018
sg11
S'/usr/include/stdlib.h'
p2019
sg13
S'/usr/include/stdlib.h:337:1'
p2020
sg15
(lp2021
(dp2022
S'param'
p2023
S'unsigned int'
p2024
sasg26
I01
sg27
I00
sbasS'vprintf'
p2025
(lp2026
(i__main__
Function
p2027
(dp2028
g6
S'/usr/include/stdio.h:379:70'
p2029
sg8
g2025
sg9
S'int'
p2030
sg11
S'/usr/include/stdio.h'
p2031
sg13
S'/usr/include/stdio.h:379:1'
p2032
sg15
(lp2033
(dp2034
S'param'
p2035
S'const char *restrict'
p2036
sa(dp2037
S'param'
p2038
S'__gnuc_va_list'
p2039
sasg26
I01
sg27
I00
sbasS'setbuffer'
p2040
(lp2041
(i__main__
Function
p2042
(dp2043
g6
S'/usr/include/stdio.h:346:25 <Spelling=/usr/include/sys/cdefs.h:55:54>'
p2044
sg8
g2040
sg9
S'void'
p2045
sg11
S'/usr/include/stdio.h'
p2046
sg13
S'/usr/include/stdio.h:345:1'
p2047
sg15
(lp2048
(dp2049
S'param'
p2050
S'FILE *restrict'
p2051
sa(dp2052
S'param'
p2053
S'char *restrict'
p2054
sa(dp2055
S'param'
p2056
S'size_t'
p2057
sasg26
I01
sg27
I00
sbasS'getenv'
p2058
(lp2059
(i__main__
Function
p2060
(dp2061
g6
S'/usr/include/stdlib.h:525:50 <Spelling=/usr/include/sys/cdefs.h:285:63>'
p2062
sg8
g2058
sg9
S'char *'
p2063
sg11
S'/usr/include/stdlib.h'
p2064
sg13
S'/usr/include/stdlib.h:525:1'
p2065
sg15
(lp2066
(dp2067
S'param'
p2068
S'const char *'
p2069
sasg26
I01
sg27
I00
sbasS'strtold'
p2070
(lp2071
(i__main__
Function
p2072
(dp2073
g6
S'/usr/include/stdlib.h:138:14 <Spelling=/usr/include/sys/cdefs.h:285:63>'
p2074
sg8
g2070
sg9
S'long double'
p2075
sg11
S'/usr/include/stdlib.h'
p2076
sg13
S'/usr/include/stdlib.h:136:1'
p2077
sg15
(lp2078
(dp2079
S'param'
p2080
S'const char *restrict'
p2081
sa(dp2082
S'param'
p2083
S'char **restrict'
p2084
sasg26
I01
sg27
I00
sbasS'atoi'
p2085
(lp2086
(i__main__
Function
p2087
(dp2088
g6
S'/usr/include/stdlib.h:109:33 <Spelling=/usr/include/sys/cdefs.h:285:63>'
p2089
sg8
g2085
sg9
S'int'
p2090
sg11
S'/usr/include/stdlib.h'
p2091
sg13
S'/usr/include/stdlib.h:108:1'
p2092
sg15
(lp2093
(dp2094
S'param'
p2095
S'const char *'
p2096
sasg26
I01
sg27
I00
sbasS'_IO_funlockfile'
p2097
(lp2098
(i__main__
Function
p2099
(dp2100
g6
S'/usr/include/libio.h:441:42 <Spelling=/usr/include/sys/cdefs.h:55:54>'
p2101
sg8
g2097
sg9
S'void'
p2102
sg11
S'/usr/include/libio.h'
p2103
sg13
S'/usr/include/libio.h:441:1'
p2104
sg15
(lp2105
(dp2106
S'param'
p2107
S'_IO_FILE *'
p2108
sasg26
I01
sg27
I00
sbasS'atol'
p2109
(lp2110
(i__main__
Function
p2111
(dp2112
g6
S'/usr/include/stdlib.h:112:33 <Spelling=/usr/include/sys/cdefs.h:285:63>'
p2113
sg8
g2109
sg9
S'long'
p2114
sg11
S'/usr/include/stdlib.h'
p2115
sg13
S'/usr/include/stdlib.h:111:1'
p2116
sg15
(lp2117
(dp2118
S'param'
p2119
S'const char *'
p2120
sasg26
I01
sg27
I00
sbasS'putchar'
p2121
(lp2122
(i__main__
Function
p2123
(dp2124
g6
S'/usr/include/stdio.h:582:28'
p2125
sg8
g2121
sg9
S'int'
p2126
sg11
S'/usr/include/stdio.h'
p2127
sg13
S'/usr/include/stdio.h:582:1'
p2128
sg15
(lp2129
(dp2130
S'param'
p2131
S'int'
p2132
sasg26
I01
sg27
I00
sbasS'_Exit'
p2133
(lp2134
(i__main__
Function
p2135
(dp2136
g6
S'/usr/include/stdlib.h:518:71'
p2137
sg8
g2133
sg9
S'void'
p2138
sg11
S'/usr/include/stdlib.h'
p2139
sg13
S'/usr/include/stdlib.h:518:1'
p2140
sg15
(lp2141
(dp2142
S'param'
p2143
S'int'
p2144
sasg26
I01
sg27
I00
sbasS'atof'
p2145
(lp2146
(i__main__
Function
p2147
(dp2148
g6
S'/usr/include/stdlib.h:106:33 <Spelling=/usr/include/sys/cdefs.h:285:63>'
p2149
sg8
g2145
sg9
S'double'
p2150
sg11
S'/usr/include/stdlib.h'
p2151
sg13
S'/usr/include/stdlib.h:105:1'
p2152
sg15
(lp2153
(dp2154
S'param'
p2155
S'const char *'
p2156
sasg26
I01
sg27
I00
sbasS'drand48'
p2157
(lp2158
(i__main__
Function
p2159
(dp2160
g6
S'/usr/include/stdlib.h:350:30 <Spelling=/usr/include/sys/cdefs.h:55:54>'
p2161
sg8
g2157
sg9
S'double'
p2162
sg11
S'/usr/include/stdlib.h'
p2163
sg13
S'/usr/include/stdlib.h:350:1'
p2164
sg15
Nsg26
I01
sg27
I00
sbasS'erand48'
p2165
(lp2166
(i__main__
Function
p2167
(dp2168
g6
S'/usr/include/stdlib.h:351:63 <Spelling=/usr/include/sys/cdefs.h:285:63>'
p2169
sg8
g2165
sg9
S'double'
p2170
sg11
S'/usr/include/stdlib.h'
p2171
sg13
S'/usr/include/stdlib.h:351:1'
p2172
sg15
(lp2173
(dp2174
S'param'
p2175
S'unsigned short [3]'
p2176
sasg26
I01
sg27
I00
sbasS'_IO_getc'
p2177
(lp2178
(i__main__
Function
p2179
(dp2180
g6
S'/usr/include/libio.h:429:36'
p2181
sg8
g2177
sg9
S'int'
p2182
sg11
S'/usr/include/libio.h'
p2183
sg13
S'/usr/include/libio.h:429:1'
p2184
sg15
(lp2185
(dp2186
S'param'
p2187
S'_IO_FILE *'
p2188
sasg26
I01
sg27
I00
sbasS'fscanf'
p2189
(lp2190
(i__main__
Function
p2191
(dp2192
g6
S'/usr/include/stdio.h:428:42'
p2193
sg8
g2189
sg9
S'int'
p2194
sg11
S'/usr/include/stdio.h'
p2195
sg13
S'/usr/include/stdio.h:427:1'
p2196
sg15
(lp2197
(dp2198
S'param'
p2199
S'FILE *restrict'
p2200
sa(dp2201
S'param'
p2202
S'const char *restrict'
p2203
sasg26
I01
sg27
I00
sba(i__main__
Function
p2204
(dp2205
g6
S'/usr/include/stdio.h:445:12 <Spelling=/usr/include/sys/cdefs.h:177:79>'
p2206
sg8
S'fscanf'
p2207
sg9
S'int'
p2208
sg11
S'/usr/include/stdio.h'
p2209
sg13
S'/usr/include/stdio.h:445:1'
p2210
sg15
(lp2211
(dp2212
S'param'
p2213
S'FILE *restrict'
p2214
sa(dp2215
S'param'
p2216
S'const char *restrict'
p2217
sasg26
I01
sg27
I00
sbasS'ftrylockfile'
p2218
(lp2219
(i__main__
Function
p2220
(dp2221
g6
S'/usr/include/stdio.h:918:42 <Spelling=/usr/include/sys/cdefs.h:55:54>'
p2222
sg8
g2218
sg9
S'int'
p2223
sg11
S'/usr/include/stdio.h'
p2224
sg13
S'/usr/include/stdio.h:918:1'
p2225
sg15
(lp2226
(dp2227
S'param'
p2228
S'FILE *'
p2229
sasg26
I01
sg27
I00
sbasS'getc_unlocked'
p2230
(lp2231
(i__main__
Function
p2232
(dp2233
g6
S'/usr/include/stdio.h:552:41'
p2234
sg8
g2230
sg9
S'int'
p2235
sg11
S'/usr/include/stdio.h'
p2236
sg13
S'/usr/include/stdio.h:552:1'
p2237
sg15
(lp2238
(dp2239
S'param'
p2240
S'FILE *'
p2241
sasg26
I01
sg27
I00
sbasS'strtoq'
p2242
(lp2243
(i__main__
Function
p2244
(dp2245
g6
S'/usr/include/stdlib.h:158:14 <Spelling=/usr/include/sys/cdefs.h:285:63>'
p2246
sg8
g2242
sg9
S'long long'
p2247
sg11
S'/usr/include/stdlib.h'
p2248
sg13
S'/usr/include/stdlib.h:156:1'
p2249
sg15
(lp2250
(dp2251
S'param'
p2252
S'const char *restrict'
p2253
sa(dp2254
S'param'
p2255
S'char **restrict'
p2256
sa(dp2257
S'param'
p2258
S'int'
p2259
sasg26
I01
sg27
I00
sbasS'_IO_vfscanf'
p2260
(lp2261
(i__main__
Function
p2262
(dp2263
g6
S'/usr/include/libio.h:460:32'
p2264
sg8
g2260
sg9
S'int'
p2265
sg11
S'/usr/include/libio.h'
p2266
sg13
S'/usr/include/libio.h:459:1'
p2267
sg15
(lp2268
(dp2269
S'param'
p2270
S'_IO_FILE *restrict'
p2271
sa(dp2272
S'param'
p2273
S'const char *restrict'
p2274
sa(dp2275
S'param'
p2276
S'__gnuc_va_list'
p2277
sa(dp2278
S'param'
p2279
S'int *restrict'
p2280
sasg26
I01
sg27
I00
sbasS'qfcvt'
p2281
(lp2282
(i__main__
Function
p2283
(dp2284
g6
S'/usr/include/stdlib.h:795:14 <Spelling=/usr/include/sys/cdefs.h:285:63>'
p2285
sg8
g2281
sg9
S'char *'
p2286
sg11
S'/usr/include/stdlib.h'
p2287
sg13
S'/usr/include/stdlib.h:793:1'
p2288
sg15
(lp2289
(dp2290
S'param'
p2291
S'long double'
p2292
sa(dp2293
S'param'
p2294
S'int'
p2295
sa(dp2296
S'param'
p2297
S'int *restrict'
p2298
sa(dp2299
S'param'
p2300
S'int *restrict'
p2301
sasg26
I01
sg27
I00
sbasS'ungetc'
p2302
(lp2303
(i__main__
Function
p2304
(dp2305
g6
S'/usr/include/stdio.h:704:43'
p2306
sg8
g2302
sg9
S'int'
p2307
sg11
S'/usr/include/stdio.h'
p2308
sg13
S'/usr/include/stdio.h:704:1'
p2309
sg15
(lp2310
(dp2311
S'param'
p2312
S'int'
p2313
sa(dp2314
S'param'
p2315
S'FILE *'
p2316
sasg26
I01
sg27
I00
sbasS'initstate'
p2317
(lp2318
(i__main__
Function
p2319
(dp2320
g6
S'/usr/include/stdlib.h:292:31 <Spelling=/usr/include/sys/cdefs.h:285:63>'
p2321
sg8
g2317
sg9
S'char *'
p2322
sg11
S'/usr/include/stdlib.h'
p2323
sg13
S'/usr/include/stdlib.h:291:1'
p2324
sg15
(lp2325
(dp2326
S'param'
p2327
S'unsigned int'
p2328
sa(dp2329
S'param'
p2330
S'char *'
p2331
sa(dp2332
S'param'
p2333
S'size_t'
p2334
sasg26
I01
sg27
I00
sbasS'vsprintf'
p2335
(lp2336
(i__main__
Function
p2337
(dp2338
g6
S'/usr/include/stdio.h:382:26 <Spelling=/usr/include/sys/cdefs.h:56:49>'
p2339
sg8
g2335
sg9
S'int'
p2340
sg11
S'/usr/include/stdio.h'
p2341
sg13
S'/usr/include/stdio.h:381:1'
p2342
sg15
(lp2343
(dp2344
S'param'
p2345
S'char *restrict'
p2346
sa(dp2347
S'param'
p2348
S'const char *restrict'
p2349
sa(dp2350
S'param'
p2351
S'__gnuc_va_list'
p2352
sasg26
I01
sg27
I00
sbasS'rename'
p2353
(lp2354
(i__main__
Function
p2355
(dp2356
g6
S'/usr/include/stdio.h:182:58 <Spelling=/usr/include/sys/cdefs.h:55:54>'
p2357
sg8
g2353
sg9
S'int'
p2358
sg11
S'/usr/include/stdio.h'
p2359
sg13
S'/usr/include/stdio.h:182:1'
p2360
sg15
(lp2361
(dp2362
S'param'
p2363
S'const char *'
p2364
sa(dp2365
S'param'
p2366
S'const char *'
p2367
sasg26
I01
sg27
I00
sbasS'vsnprintf'
p2368
(lp2369
(i__main__
Function
p2370
(dp2371
g6
S'/usr/include/stdio.h:394:62'
p2372
sg8
g2368
sg9
S'int'
p2373
sg11
S'/usr/include/stdio.h'
p2374
sg13
S'/usr/include/stdio.h:392:1'
p2375
sg15
(lp2376
(dp2377
S'param'
p2378
S'char *restrict'
p2379
sa(dp2380
S'param'
p2381
S'size_t'
p2382
sa(dp2383
S'param'
p2384
S'const char *restrict'
p2385
sa(dp2386
S'param'
p2387
S'__gnuc_va_list'
p2388
sasg26
I01
sg27
I00
sbasS'malloc'
p2389
(lp2390
(i__main__
Function
p2391
(dp2392
g6
S'/usr/include/stdlib.h:427:45 <Spelling=/usr/include/sys/cdefs.h:211:58>'
p2393
sg8
g2389
sg9
S'void *'
p2394
sg11
S'/usr/include/stdlib.h'
p2395
sg13
S'/usr/include/stdlib.h:427:1'
p2396
sg15
(lp2397
(dp2398
S'param'
p2399
S'size_t'
p2400
sasg26
I01
sg27
I00
sbasS'_IO_peekc_locked'
p2401
(lp2402
(i__main__
Function
p2403
(dp2404
g6
S'/usr/include/libio.h:434:44'
p2405
sg8
g2401
sg9
S'int'
p2406
sg11
S'/usr/include/libio.h'
p2407
sg13
S'/usr/include/libio.h:434:1'
p2408
sg15
(lp2409
(dp2410
S'param'
p2411
S'_IO_FILE *'
p2412
sasg26
I01
sg27
I00
sbasS'sscanf'
p2413
(lp2414
(i__main__
Function
p2415
(dp2416
g6
S'/usr/include/stdio.h:436:44 <Spelling=/usr/include/sys/cdefs.h:55:54>'
p2417
sg8
g2413
sg9
S'int'
p2418
sg11
S'/usr/include/stdio.h'
p2419
sg13
S'/usr/include/stdio.h:435:1'
p2420
sg15
(lp2421
(dp2422
S'param'
p2423
S'const char *restrict'
p2424
sa(dp2425
S'param'
p2426
S'const char *restrict'
p2427
sasg26
I01
sg27
I00
sba(i__main__
Function
p2428
(dp2429
g6
S'/usr/include/stdio.h:450:12 <Spelling=/usr/include/sys/cdefs.h:55:54>'
p2430
sg8
S'sscanf'
p2431
sg9
S'int'
p2432
sg11
S'/usr/include/stdio.h'
p2433
sg13
S'/usr/include/stdio.h:450:1'
p2434
sg15
(lp2435
(dp2436
S'param'
p2437
S'const char *restrict'
p2438
sa(dp2439
S'param'
p2440
S'const char *restrict'
p2441
sasg26
I01
sg27
I00
sbasS'cfree'
p2442
(lp2443
(i__main__
Function
p2444
(dp2445
g6
S'/usr/include/stdlib.h:449:33 <Spelling=/usr/include/sys/cdefs.h:55:54>'
p2446
sg8
g2442
sg9
S'void'
p2447
sg11
S'/usr/include/stdlib.h'
p2448
sg13
S'/usr/include/stdlib.h:449:1'
p2449
sg15
(lp2450
(dp2451
S'param'
p2452
S'void *'
p2453
sasg26
I01
sg27
I00
sbasS'fread'
p2454
(lp2455
(i__main__
Function
p2456
(dp2457
g6
S'/usr/include/stdio.h:712:45'
p2458
sg8
g2454
sg9
S'size_t'
p2459
sg11
S'/usr/include/stdio.h'
p2460
sg13
S'/usr/include/stdio.h:711:1'
p2461
sg15
(lp2462
(dp2463
S'param'
p2464
S'void *restrict'
p2465
sa(dp2466
S'param'
p2467
S'size_t'
p2468
sa(dp2469
S'param'
p2470
S'size_t'
p2471
sa(dp2472
S'param'
p2473
S'FILE *restrict'
p2474
sasg26
I01
sg27
I00
sbasS'ftello'
p2475
(lp2476
(i__main__
Function
p2477
(dp2478
g6
S'/usr/include/stdio.h:780:38'
p2479
sg8
g2475
sg9
S'__off_t'
p2480
sg11
S'/usr/include/stdio.h'
p2481
sg13
S'/usr/include/stdio.h:780:1'
p2482
sg15
(lp2483
(dp2484
S'param'
p2485
S'FILE *'
p2486
sasg26
I01
sg27
I00
sbasS'fwrite_unlocked'
p2487
(lp2488
(i__main__
Function
p2489
(dp2490
g6
S'/usr/include/stdio.h:742:48'
p2491
sg8
g2487
sg9
S'size_t'
p2492
sg11
S'/usr/include/stdio.h'
p2493
sg13
S'/usr/include/stdio.h:741:1'
p2494
sg15
(lp2495
(dp2496
S'param'
p2497
S'const void *restrict'
p2498
sa(dp2499
S'param'
p2500
S'size_t'
p2501
sa(dp2502
S'param'
p2503
S'size_t'
p2504
sa(dp2505
S'param'
p2506
S'FILE *restrict'
p2507
sasg26
I01
sg27
I00
sbasS'pselect'
p2508
(lp2509
(i__main__
Function
p2510
(dp2511
g6
S'/usr/include/sys/select.h:124:45'
p2512
sg8
g2508
sg9
S'int'
p2513
sg11
S'/usr/include/sys/select.h'
p2514
sg13
S'/usr/include/sys/select.h:120:1'
p2515
sg15
(lp2516
(dp2517
S'param'
p2518
S'int'
p2519
sa(dp2520
S'param'
p2521
S'fd_set *restrict'
p2522
sa(dp2523
S'param'
p2524
S'fd_set *restrict'
p2525
sa(dp2526
S'param'
p2527
S'fd_set *restrict'
p2528
sa(dp2529
S'param'
p2530
S'const struct timespec *restrict'
p2531
sa(dp2532
S'param'
p2533
S'const __sigset_t *restrict'
p2534
sasg26
I01
sg27
I00
sbasS'__ctype_get_mb_cur_max'
p2535
(lp2536
(i__main__
Function
p2537
(dp2538
g6
S'/usr/include/stdlib.h:100:45 <Spelling=/usr/include/sys/cdefs.h:55:54>'
p2539
sg8
g2535
sg9
S'size_t'
p2540
sg11
S'/usr/include/stdlib.h'
p2541
sg13
S'/usr/include/stdlib.h:100:1'
p2542
sg15
Nsg26
I01
sg27
I00
sbasS'abort'
p2543
(lp2544
(i__main__
Function
p2545
(dp2546
g6
S'/usr/include/stdlib.h:476:63'
p2547
sg8
g2543
sg9
S'void'
p2548
sg11
S'/usr/include/stdlib.h'
p2549
sg13
S'/usr/include/stdlib.h:476:1'
p2550
sg15
Nsg26
I01
sg27
I00
sbasS'fprintf'
p2551
(lp2552
(i__main__
Function
p2553
(dp2554
g6
S'/usr/include/stdio.h:359:43'
p2555
sg8
g2551
sg9
S'int'
p2556
sg11
S'/usr/include/stdio.h'
p2557
sg13
S'/usr/include/stdio.h:358:1'
p2558
sg15
(lp2559
(dp2560
S'param'
p2561
S'FILE *restrict'
p2562
sa(dp2563
S'param'
p2564
S'const char *restrict'
p2565
sasg26
I01
sg27
I00
sbasS'strtoll'
p2566
(lp2567
(i__main__
Function
p2568
(dp2569
g6
S'/usr/include/stdlib.h:172:14 <Spelling=/usr/include/sys/cdefs.h:285:63>'
p2570
sg8
g2566
sg9
S'long long'
p2571
sg11
S'/usr/include/stdlib.h'
p2572
sg13
S'/usr/include/stdlib.h:170:1'
p2573
sg15
(lp2574
(dp2575
S'param'
p2576
S'const char *restrict'
p2577
sa(dp2578
S'param'
p2579
S'char **restrict'
p2580
sa(dp2581
S'param'
p2582
S'int'
p2583
sasg26
I01
sg27
I00
sbasS'_IO_seekpos'
p2584
(lp2585
(i__main__
Function
p2586
(dp2587
g6
S'/usr/include/libio.h:467:61'
p2588
sg8
g2584
sg9
S'__off64_t'
p2589
sg11
S'/usr/include/libio.h'
p2590
sg13
S'/usr/include/libio.h:467:1'
p2591
sg15
(lp2592
(dp2593
S'param'
p2594
S'_IO_FILE *'
p2595
sa(dp2596
S'param'
p2597
S'__off64_t'
p2598
sa(dp2599
S'param'
p2600
S'int'
p2601
sasg26
I01
sg27
I00
sbasS'feof'
p2602
(lp2603
(i__main__
Function
p2604
(dp2605
g6
S'/usr/include/stdio.h:830:34 <Spelling=/usr/include/sys/cdefs.h:55:54>'
p2606
sg8
g2602
sg9
S'int'
p2607
sg11
S'/usr/include/stdio.h'
p2608
sg13
S'/usr/include/stdio.h:830:1'
p2609
sg15
(lp2610
(dp2611
S'param'
p2612
S'FILE *'
p2613
sasg26
I01
sg27
I00
sbasS'clearerr'
p2614
(lp2615
(i__main__
Function
p2616
(dp2617
g6
S'/usr/include/stdio.h:828:39 <Spelling=/usr/include/sys/cdefs.h:55:54>'
p2618
sg8
g2614
sg9
S'void'
p2619
sg11
S'/usr/include/stdio.h'
p2620
sg13
S'/usr/include/stdio.h:828:1'
p2621
sg15
(lp2622
(dp2623
S'param'
p2624
S'FILE *'
p2625
sasg26
I01
sg27
I00
sbasS'lcong48'
p2626
(lp2627
(i__main__
Function
p2628
(dp2629
g6
S'/usr/include/stdlib.h:367:61 <Spelling=/usr/include/sys/cdefs.h:285:63>'
p2630
sg8
g2626
sg9
S'void'
p2631
sg11
S'/usr/include/stdlib.h'
p2632
sg13
S'/usr/include/stdlib.h:367:1'
p2633
sg15
(lp2634
(dp2635
S'param'
p2636
S'unsigned short [7]'
p2637
sasg26
I01
sg27
I00
sbasS'lrand48'
p2638
(lp2639
(i__main__
Function
p2640
(dp2641
g6
S'/usr/include/stdlib.h:354:32 <Spelling=/usr/include/sys/cdefs.h:55:54>'
p2642
sg8
g2638
sg9
S'long'
p2643
sg11
S'/usr/include/stdlib.h'
p2644
sg13
S'/usr/include/stdlib.h:354:1'
p2645
sg15
Nsg26
I01
sg27
I00
sbasS'fseek'
p2646
(lp2647
(i__main__
Function
p2648
(dp2649
g6
S'/usr/include/stdio.h:751:63'
p2650
sg8
g2646
sg9
S'int'
p2651
sg11
S'/usr/include/stdio.h'
p2652
sg13
S'/usr/include/stdio.h:751:1'
p2653
sg15
(lp2654
(dp2655
S'param'
p2656
S'FILE *'
p2657
sa(dp2658
S'param'
p2659
S'long'
p2660
sa(dp2661
S'param'
p2662
S'int'
p2663
sasg26
I01
sg27
I00
sbasS'qfcvt_r'
p2664
(lp2665
(i__main__
Function
p2666
(dp2667
g6
S'/usr/include/stdlib.h:816:14 <Spelling=/usr/include/sys/cdefs.h:285:63>'
p2668
sg8
g2664
sg9
S'int'
p2669
sg11
S'/usr/include/stdlib.h'
p2670
sg13
S'/usr/include/stdlib.h:813:1'
p2671
sg15
(lp2672
(dp2673
S'param'
p2674
S'long double'
p2675
sa(dp2676
S'param'
p2677
S'int'
p2678
sa(dp2679
S'param'
p2680
S'int *restrict'
p2681
sa(dp2682
S'param'
p2683
S'int *restrict'
p2684
sa(dp2685
S'param'
p2686
S'char *restrict'
p2687
sa(dp2688
S'param'
p2689
S'size_t'
p2690
sasg26
I01
sg27
I00
sbasS'setenv'
p2691
(lp2692
(i__main__
Function
p2693
(dp2694
g6
S'/usr/include/stdlib.h:546:14 <Spelling=/usr/include/sys/cdefs.h:285:63>'
p2695
sg8
g2691
sg9
S'int'
p2696
sg11
S'/usr/include/stdlib.h'
p2697
sg13
S'/usr/include/stdlib.h:545:1'
p2698
sg15
(lp2699
(dp2700
S'param'
p2701
S'const char *'
p2702
sa(dp2703
S'param'
p2704
S'const char *'
p2705
sa(dp2706
S'param'
p2707
S'int'
p2708
sasg26
I01
sg27
I00
sbasS'rewind'
p2709
(lp2710
(i__main__
Function
p2711
(dp2712
g6
S'/usr/include/stdio.h:761:35'
p2713
sg8
g2709
sg9
S'void'
p2714
sg11
S'/usr/include/stdio.h'
p2715
sg13
S'/usr/include/stdio.h:761:1'
p2716
sg15
(lp2717
(dp2718
S'param'
p2719
S'FILE *'
p2720
sasg26
I01
sg27
I00
sbasS'on_exit'
p2721
(lp2722
(i__main__
Function
p2723
(dp2724
g6
S'/usr/include/stdlib.h:497:14 <Spelling=/usr/include/sys/cdefs.h:285:63>'
p2725
sg8
g2721
sg9
S'int'
p2726
sg11
S'/usr/include/stdlib.h'
p2727
sg13
S'/usr/include/stdlib.h:496:1'
p2728
sg15
(lp2729
(dp2730
S'param'
p2731
S'fnptr void (*)(int, void *)'
p2732
sa(dp2733
S'param'
p2734
S'void *'
p2735
sasg26
I01
sg27
I00
sbasS'mkstemp'
p2736
(lp2737
(i__main__
Function
p2738
(dp2739
g6
S'/usr/include/stdlib.h:580:39 <Spelling=/usr/include/sys/cdefs.h:285:63>'
p2740
sg8
g2736
sg9
S'int'
p2741
sg11
S'/usr/include/stdlib.h'
p2742
sg13
S'/usr/include/stdlib.h:580:1'
p2743
sg15
(lp2744
(dp2745
S'param'
p2746
S'char *'
p2747
sasg26
I01
sg27
I00
sbasS'putc_unlocked'
p2748
(lp2749
(i__main__
Function
p2750
(dp2751
g6
S'/usr/include/stdio.h:604:50'
p2752
sg8
g2748
sg9
S'int'
p2753
sg11
S'/usr/include/stdio.h'
p2754
sg13
S'/usr/include/stdio.h:604:1'
p2755
sg15
(lp2756
(dp2757
S'param'
p2758
S'int'
p2759
sa(dp2760
S'param'
p2761
S'FILE *'
p2762
sasg26
I01
sg27
I00
sbasS'vfscanf'
p2763
(lp2764
(i__main__
Function
p2765
(dp2766
g6
S'/usr/include/stdio.h:475:51'
p2767
sg8
g2763
sg9
S'int'
p2768
sg11
S'/usr/include/stdio.h'
p2769
sg13
S'/usr/include/stdio.h:473:1'
p2770
sg15
(lp2771
(dp2772
S'param'
p2773
S'FILE *restrict'
p2774
sa(dp2775
S'param'
p2776
S'const char *restrict'
p2777
sa(dp2778
S'param'
p2779
S'__gnuc_va_list'
p2780
sasg26
I01
sg27
I00
sba(i__main__
Function
p2781
(dp2782
g6
S'/usr/include/stdio.h:500:51'
p2783
sg8
S'vfscanf'
p2784
sg9
S'int'
p2785
sg11
S'/usr/include/stdio.h'
p2786
sg13
S'/usr/include/stdio.h:496:1'
p2787
sg15
(lp2788
(dp2789
S'param'
p2790
S'FILE *restrict'
p2791
sa(dp2792
S'param'
p2793
S'const char *restrict'
p2794
sa(dp2795
S'param'
p2796
S'__gnuc_va_list'
p2797
sasg26
I01
sg27
I00
sbasS'getw'
p2798
(lp2799
(i__main__
Function
p2800
(dp2801
g6
S'/usr/include/stdio.h:612:32'
p2802
sg8
g2798
sg9
S'int'
p2803
sg11
S'/usr/include/stdio.h'
p2804
sg13
S'/usr/include/stdio.h:612:1'
p2805
sg15
(lp2806
(dp2807
S'param'
p2808
S'FILE *'
p2809
sasg26
I01
sg27
I00
sbasS'flockfile'
p2810
(lp2811
(i__main__
Function
p2812
(dp2813
g6
S'/usr/include/stdio.h:914:40 <Spelling=/usr/include/sys/cdefs.h:55:54>'
p2814
sg8
g2810
sg9
S'void'
p2815
sg11
S'/usr/include/stdio.h'
p2816
sg13
S'/usr/include/stdio.h:914:1'
p2817
sg15
(lp2818
(dp2819
S'param'
p2820
S'FILE *'
p2821
sasg26
I01
sg27
I00
sbasS'realpath'
p2822
(lp2823
(i__main__
Function
p2824
(dp2825
g6
S'/usr/include/stdlib.h:695:39 <Spelling=/usr/include/sys/cdefs.h:55:54>'
p2826
sg8
g2822
sg9
S'char *'
p2827
sg11
S'/usr/include/stdlib.h'
p2828
sg13
S'/usr/include/stdlib.h:694:1'
p2829
sg15
(lp2830
(dp2831
S'param'
p2832
S'const char *restrict'
p2833
sa(dp2834
S'param'
p2835
S'char *restrict'
p2836
sasg26
I01
sg27
I00
sbasS'_IO_free_backup_area'
p2837
(lp2838
(i__main__
Function
p2839
(dp2840
g6
S'/usr/include/libio.h:469:47 <Spelling=/usr/include/sys/cdefs.h:55:54>'
p2841
sg8
g2837
sg9
S'void'
p2842
sg11
S'/usr/include/libio.h'
p2843
sg13
S'/usr/include/libio.h:469:1'
p2844
sg15
(lp2845
(dp2846
S'param'
p2847
S'_IO_FILE *'
p2848
sasg26
I01
sg27
I00
sbasS'unsetenv'
p2849
(lp2850
(i__main__
Function
p2851
(dp2852
g6
S'/usr/include/stdlib.h:549:50 <Spelling=/usr/include/sys/cdefs.h:285:63>'
p2853
sg8
g2849
sg9
S'int'
p2854
sg11
S'/usr/include/stdlib.h'
p2855
sg13
S'/usr/include/stdlib.h:549:1'
p2856
sg15
(lp2857
(dp2858
S'param'
p2859
S'const char *'
p2860
sasg26
I01
sg27
I00
sbasS'mrand48_r'
p2861
(lp2862
(i__main__
Function
p2863
(dp2864
g6
S'/usr/include/stdlib.h:402:14 <Spelling=/usr/include/sys/cdefs.h:285:63>'
p2865
sg8
g2861
sg9
S'int'
p2866
sg11
S'/usr/include/stdlib.h'
p2867
sg13
S'/usr/include/stdlib.h:400:1'
p2868
sg15
(lp2869
(dp2870
S'param'
p2871
S'struct drand48_data *restrict'
p2872
sa(dp2873
S'param'
p2874
S'long *restrict'
p2875
sasg26
I01
sg27
I00
sbasS'srand48_r'
p2876
(lp2877
(i__main__
Function
p2878
(dp2879
g6
S'/usr/include/stdlib.h:410:14 <Spelling=/usr/include/sys/cdefs.h:285:63>'
p2880
sg8
g2876
sg9
S'int'
p2881
sg11
S'/usr/include/stdlib.h'
p2882
sg13
S'/usr/include/stdlib.h:409:1'
p2883
sg15
(lp2884
(dp2885
S'param'
p2886
S'long'
p2887
sa(dp2888
S'param'
p2889
S'struct drand48_data *'
p2890
sasg26
I01
sg27
I00
sbasS'random_r'
p2891
(lp2892
(i__main__
Function
p2893
(dp2894
g6
S'/usr/include/stdlib.h:316:46 <Spelling=/usr/include/sys/cdefs.h:285:63>'
p2895
sg8
g2891
sg9
S'int'
p2896
sg11
S'/usr/include/stdlib.h'
p2897
sg13
S'/usr/include/stdlib.h:315:1'
p2898
sg15
(lp2899
(dp2900
S'param'
p2901
S'struct random_data *restrict'
p2902
sa(dp2903
S'param'
p2904
S'int32_t *restrict'
p2905
sasg26
I01
sg27
I00
sbasS'valloc'
p2906
(lp2907
(i__main__
Function
p2908
(dp2909
g6
S'/usr/include/stdlib.h:459:45 <Spelling=/usr/include/sys/cdefs.h:211:58>'
p2910
sg8
g2906
sg9
S'void *'
p2911
sg11
S'/usr/include/stdlib.h'
p2912
sg13
S'/usr/include/stdlib.h:459:1'
p2913
sg15
(lp2914
(dp2915
S'param'
p2916
S'size_t'
p2917
sasg26
I01
sg27
I00
sbasS'calloc'
p2918
(lp2919
(i__main__
Function
p2920
(dp2921
g6
S'/usr/include/stdlib.h:430:14 <Spelling=/usr/include/sys/cdefs.h:211:58>'
p2922
sg8
g2918
sg9
S'void *'
p2923
sg11
S'/usr/include/stdlib.h'
p2924
sg13
S'/usr/include/stdlib.h:429:1'
p2925
sg15
(lp2926
(dp2927
S'param'
p2928
S'size_t'
p2929
sa(dp2930
S'param'
p2931
S'size_t'
p2932
sasg26
I01
sg27
I00
sbasS'setbuf'
p2933
(lp2934
(i__main__
Function
p2935
(dp2936
g6
S'/usr/include/stdio.h:334:72 <Spelling=/usr/include/sys/cdefs.h:55:54>'
p2937
sg8
g2933
sg9
S'void'
p2938
sg11
S'/usr/include/stdio.h'
p2939
sg13
S'/usr/include/stdio.h:334:1'
p2940
sg15
(lp2941
(dp2942
S'param'
p2943
S'FILE *restrict'
p2944
sa(dp2945
S'param'
p2946
S'char *restrict'
p2947
sasg26
I01
sg27
I00
sbasS'at_quick_exit'
p2948
(lp2949
(i__main__
Function
p2950
(dp2951
g6
S'/usr/include/stdlib.h:488:58 <Spelling=/usr/include/sys/cdefs.h:285:63>'
p2952
sg8
g2948
sg9
S'int'
p2953
sg11
S'/usr/include/stdlib.h'
p2954
sg13
S'/usr/include/stdlib.h:488:1'
p2955
sg15
(lp2956
(dp2957
S'param'
p2958
S'fnptr void (*)(void)'
p2959
sasg26
I01
sg27
I00
sbasS'fcvt'
p2960
(lp2961
(i__main__
Function
p2962
(dp2963
g6
S'/usr/include/stdlib.h:779:38 <Spelling=/usr/include/sys/cdefs.h:285:63>'
p2964
sg8
g2960
sg9
S'char *'
p2965
sg11
S'/usr/include/stdlib.h'
p2966
sg13
S'/usr/include/stdlib.h:778:1'
p2967
sg15
(lp2968
(dp2969
S'param'
p2970
S'double'
p2971
sa(dp2972
S'param'
p2973
S'int'
p2974
sa(dp2975
S'param'
p2976
S'int *restrict'
p2977
sa(dp2978
S'param'
p2979
S'int *restrict'
p2980
sasg26
I01
sg27
I00
sbasS'funlockfile'
p2981
(lp2982
(i__main__
Function
p2983
(dp2984
g6
S'/usr/include/stdio.h:921:42 <Spelling=/usr/include/sys/cdefs.h:55:54>'
p2985
sg8
g2981
sg9
S'void'
p2986
sg11
S'/usr/include/stdio.h'
p2987
sg13
S'/usr/include/stdio.h:921:1'
p2988
sg15
(lp2989
(dp2990
S'param'
p2991
S'FILE *'
p2992
sasg26
I01
sg27
I00
sbasS'srand48'
p2993
(lp2994
(i__main__
Function
p2995
(dp2996
g6
S'/usr/include/stdlib.h:364:42 <Spelling=/usr/include/sys/cdefs.h:55:54>'
p2997
sg8
g2993
sg9
S'void'
p2998
sg11
S'/usr/include/stdlib.h'
p2999
sg13
S'/usr/include/stdlib.h:364:1'
p3000
sg15
(lp3001
(dp3002
S'param'
p3003
S'long'
p3004
sasg26
I01
sg27
I00
sbasS'wcstombs'
p3005
(lp3006
(i__main__
Function
p3007
(dp3008
g6
S'/usr/include/stdlib.h:839:6 <Spelling=/usr/include/sys/cdefs.h:55:54>'
p3009
sg8
g3005
sg9
S'size_t'
p3010
sg11
S'/usr/include/stdlib.h'
p3011
sg13
S'/usr/include/stdlib.h:837:1'
p3012
sg15
(lp3013
(dp3014
S'param'
p3015
S'char *restrict'
p3016
sa(dp3017
S'param'
p3018
S'const wchar_t *restrict'
p3019
sa(dp3020
S'param'
p3021
S'size_t'
p3022
sasg26
I01
sg27
I00
sbasS'drand48_r'
p3023
(lp3024
(i__main__
Function
p3025
(dp3026
g6
S'/usr/include/stdlib.h:385:46 <Spelling=/usr/include/sys/cdefs.h:285:63>'
p3027
sg8
g3023
sg9
S'int'
p3028
sg11
S'/usr/include/stdlib.h'
p3029
sg13
S'/usr/include/stdlib.h:384:1'
p3030
sg15
(lp3031
(dp3032
S'param'
p3033
S'struct drand48_data *restrict'
p3034
sa(dp3035
S'param'
p3036
S'double *restrict'
p3037
sasg26
I01
sg27
I00
sbasS'nrand48'
p3038
(lp3039
(i__main__
Function
p3040
(dp3041
g6
S'/usr/include/stdlib.h:356:14 <Spelling=/usr/include/sys/cdefs.h:285:63>'
p3042
sg8
g3038
sg9
S'long'
p3043
sg11
S'/usr/include/stdlib.h'
p3044
sg13
S'/usr/include/stdlib.h:355:1'
p3045
sg15
(lp3046
(dp3047
S'param'
p3048
S'unsigned short [3]'
p3049
sasg26
I01
sg27
I00
sbasS'setlinebuf'
p3050
(lp3051
(i__main__
Function
p3052
(dp3053
g6
S'/usr/include/stdio.h:349:41 <Spelling=/usr/include/sys/cdefs.h:55:54>'
p3054
sg8
g3050
sg9
S'void'
p3055
sg11
S'/usr/include/stdio.h'
p3056
sg13
S'/usr/include/stdio.h:349:1'
p3057
sg15
(lp3058
(dp3059
S'param'
p3060
S'FILE *'
p3061
sasg26
I01
sg27
I00
sbasS'setvbuf'
p3062
(lp3063
(i__main__
Function
p3064
(dp3065
g6
S'/usr/include/stdio.h:339:32 <Spelling=/usr/include/sys/cdefs.h:55:54>'
p3066
sg8
g3062
sg9
S'int'
p3067
sg11
S'/usr/include/stdio.h'
p3068
sg13
S'/usr/include/stdio.h:338:1'
p3069
sg15
(lp3070
(dp3071
S'param'
p3072
S'FILE *restrict'
p3073
sa(dp3074
S'param'
p3075
S'char *restrict'
p3076
sa(dp3077
S'param'
p3078
S'int'
p3079
sa(dp3080
S'param'
p3081
S'size_t'
p3082
sasg26
I01
sg27
I00
sbasS'vfprintf'
p3083
(lp3084
(i__main__
Function
p3085
(dp3086
g6
S'/usr/include/stdio.h:374:24'
p3087
sg8
g3083
sg9
S'int'
p3088
sg11
S'/usr/include/stdio.h'
p3089
sg13
S'/usr/include/stdio.h:373:1'
p3090
sg15
(lp3091
(dp3092
S'param'
p3093
S'FILE *restrict'
p3094
sa(dp3095
S'param'
p3096
S'const char *restrict'
p3097
sa(dp3098
S'param'
p3099
S'__gnuc_va_list'
p3100
sasg26
I01
sg27
I00
sbas.(dp1
S'consume_record'
p2
(lp3
(i__main__
Call
p4
(dp5
S'end'
p6
S'toy.c:69:27'
p7
sS'name'
p8
g2
sS'args'
p9
(lp10
(dp11
S'arg'
p12
(dp13
S'info'
p14
S'None'
p15
sS'type'
p16
S'file_entry *'
p17
sS'name'
p18
S'None'
p19
ssasS'filename'
p20
S'toy.c'
p21
sS'containing_function'
p22
S'main'
p23
sS'start'
p24
S'toy.c:69:9'
p25
sS'ret_tyep'
p26
S'void'
p27
sS'fnptr'
p28
I00
sbasS'malloc'
p29
(lp30
(i__main__
Call
p31
(dp32
g6
S'toy.c:38:63'
p33
sg8
g29
sg9
(lp34
(dp35
S'arg'
p36
(dp37
S'info'
p38
S'None'
p39
sS'type'
p40
S'unsigned long'
p41
sS'name'
p42
S'None'
p43
ssasg20
S'toy.c'
p44
sg22
S'parse_record'
p45
sg24
S'toy.c:38:38'
p46
sg26
S'void *'
p47
sg28
I00
sbasS'parse_header'
p48
(lp49
(i__main__
Call
p50
(dp51
g6
S'toy.c:63:26'
p52
sg8
g48
sg9
(lp53
(dp54
S'arg'
p55
(dp56
S'info'
p57
S'None'
p58
sS'type'
p59
S'FILE *'
p60
sS'name'
p61
S'None'
p62
ssa(dp63
S'arg'
p64
(dp65
S'info'
p66
S'None'
p67
sS'type'
p68
S'file_header *'
p69
sS'name'
p70
S'None'
p71
ssasg20
S'toy.c'
p72
sg22
S'main'
p73
sg24
S'toy.c:63:5'
p74
sg26
S'void'
p75
sg28
I00
sbasS'fread'
p76
(lp77
(i__main__
Call
p78
(dp79
g6
S'toy.c:31:50'
p80
sg8
g76
sg9
(lp81
(dp82
S'arg'
p83
(dp84
S'info'
p85
S'None'
p86
sS'type'
p87
S'file_header *'
p88
sS'name'
p89
S'None'
p90
ssa(dp91
S'arg'
p92
(dp93
S'info'
p94
S'None'
p95
sS'type'
p96
S'unsigned long'
p97
sS'name'
p98
S'None'
p99
ssa(dp100
S'arg'
p101
(dp102
S'info'
p103
S'None'
p104
sS'type'
p105
S'int'
p106
sS'name'
p107
S'None'
p108
ssa(dp109
S'arg'
p110
(dp111
S'info'
p112
S'None'
p113
sS'type'
p114
S'FILE *'
p115
sS'name'
p116
S'None'
p117
ssasg20
S'toy.c'
p118
sg22
S'parse_header'
p119
sg24
S'toy.c:31:14'
p120
sg26
S'size_t'
p121
sg28
I00
sba(i__main__
Call
p122
(dp123
g6
S'toy.c:39:49'
p124
sg8
S'fread'
p125
sg9
(lp126
(dp127
S'arg'
p128
(dp129
S'info'
p130
S'None'
p131
sS'type'
p132
S'file_entry *'
p133
sS'name'
p134
S'None'
p135
ssa(dp136
S'arg'
p137
(dp138
S'info'
p139
S'None'
p140
sS'type'
p141
S'unsigned long'
p142
sS'name'
p143
S'None'
p144
ssa(dp145
S'arg'
p146
(dp147
S'info'
p148
S'None'
p149
sS'type'
p150
S'int'
p151
sS'name'
p152
S'None'
p153
ssa(dp154
S'arg'
p155
(dp156
S'info'
p157
S'None'
p158
sS'type'
p159
S'FILE *'
p160
sS'name'
p161
S'None'
p162
ssasg20
S'toy.c'
p163
sg22
S'parse_record'
p164
sg24
S'toy.c:39:14'
p165
sg26
S'size_t'
p166
sg28
I00
sbasS'free'
p167
(lp168
(i__main__
Call
p169
(dp170
g6
S'toy.c:56:13'
p171
sg8
g167
sg9
(lp172
(dp173
S'arg'
p174
(dp175
S'info'
p176
S'None'
p177
sS'type'
p178
S'file_entry *'
p179
sS'name'
p180
S'None'
p181
ssasg20
S'toy.c'
p182
sg22
S'consume_record'
p183
sg24
S'toy.c:56:5'
p184
sg26
S'void'
p185
sg28
I00
sbasS'exit'
p186
(lp187
(i__main__
Call
p188
(dp189
g6
S'toy.c:32:15'
p190
sg8
g186
sg9
(lp191
(dp192
S'arg'
p193
(dp194
S'info'
p195
S'None'
p196
sS'type'
p197
S'int'
p198
sS'name'
p199
S'None'
p200
ssasg20
S'toy.c'
p201
sg22
S'parse_header'
p202
sg24
S'toy.c:32:9'
p203
sg26
S'void'
p204
sg28
I00
sba(i__main__
Call
p205
(dp206
g6
S'toy.c:34:15'
p207
sg8
S'exit'
p208
sg9
(lp209
(dp210
S'arg'
p211
(dp212
S'info'
p213
S'None'
p214
sS'type'
p215
S'int'
p216
sS'name'
p217
S'None'
p218
ssasg20
S'toy.c'
p219
sg22
S'parse_header'
p220
sg24
S'toy.c:34:9'
p221
sg26
S'void'
p222
sg28
I00
sba(i__main__
Call
p223
(dp224
g6
S'toy.c:40:15'
p225
sg8
S'exit'
p226
sg9
(lp227
(dp228
S'arg'
p229
(dp230
S'info'
p231
S'None'
p232
sS'type'
p233
S'int'
p234
sS'name'
p235
S'None'
p236
ssasg20
S'toy.c'
p237
sg22
S'parse_record'
p238
sg24
S'toy.c:40:9'
p239
sg26
S'void'
p240
sg28
I00
sba(i__main__
Call
p241
(dp242
g6
S'toy.c:54:15'
p243
sg8
S'exit'
p244
sg9
(lp245
(dp246
S'arg'
p247
(dp248
S'info'
p249
S'None'
p250
sS'type'
p251
S'int'
p252
sS'name'
p253
S'None'
p254
ssasg20
S'toy.c'
p255
sg22
S'consume_record'
p256
sg24
S'toy.c:54:9'
p257
sg26
S'void'
p258
sg28
I00
sbasS'printf'
p259
(lp260
(i__main__
Call
p261
(dp262
g6
S'toy.c:45:41'
p263
sg8
g259
sg9
(lp264
(dp265
S'arg'
p266
(dp267
S'info'
p268
S'None'
p269
sS'type'
p270
S'char [18]'
p271
sS'name'
p272
S'None'
p273
ssa(dp274
S'arg'
p275
(dp276
S'info'
p277
S'None'
p278
sS'type'
p279
S'char [16]'
p280
sS'name'
p281
S'None'
p282
ssasg20
S'toy.c'
p283
sg22
S'consume_record'
p284
sg24
S'toy.c:45:5'
p285
sg26
S'int'
p286
sg28
I00
sba(i__main__
Call
p287
(dp288
g6
S'toy.c:47:47'
p289
sg8
S'printf'
p290
sg9
(lp291
(dp292
S'arg'
p293
(dp294
S'info'
p295
S'None'
p296
sS'type'
p297
S'char [12]'
p298
sS'name'
p299
S'None'
p300
ssa(dp301
S'arg'
p302
(dp303
S'info'
p304
S'None'
p305
sS'type'
p306
S'float'
p307
sS'name'
p308
S'None'
p309
ssasg20
S'toy.c'
p310
sg22
S'consume_record'
p311
sg24
S'toy.c:47:9'
p312
sg26
S'int'
p313
sg28
I00
sba(i__main__
Call
p314
(dp315
g6
S'toy.c:50:51'
p316
sg8
S'printf'
p317
sg9
(lp318
(dp319
S'arg'
p320
(dp321
S'info'
p322
S'None'
p323
sS'type'
p324
S'char [14]'
p325
sS'name'
p326
S'None'
p327
ssa(dp328
S'arg'
p329
(dp330
S'info'
p331
S'None'
p332
sS'type'
p333
S'uint32_t'
p334
sS'name'
p335
S'None'
p336
ssasg20
S'toy.c'
p337
sg22
S'consume_record'
p338
sg24
S'toy.c:50:9'
p339
sg26
S'int'
p340
sg28
I00
sba(i__main__
Call
p341
(dp342
g6
S'toy.c:53:46'
p343
sg8
S'printf'
p344
sg9
(lp345
(dp346
S'arg'
p347
(dp348
S'info'
p349
S'None'
p350
sS'type'
p351
S'char [17]'
p352
sS'name'
p353
S'None'
p354
ssa(dp355
S'arg'
p356
(dp357
S'info'
p358
S'None'
p359
sS'type'
p360
S'uint32_t'
p361
sS'name'
p362
S'None'
p363
ssasg20
S'toy.c'
p364
sg22
S'consume_record'
p365
sg24
S'toy.c:53:9'
p366
sg26
S'int'
p367
sg28
I00
sba(i__main__
Call
p368
(dp369
g6
S'toy.c:64:50'
p370
sg8
S'printf'
p371
sg9
(lp372
(dp373
S'arg'
p374
(dp375
S'info'
p376
S'None'
p377
sS'type'
p378
S'char [20]'
p379
sS'name'
p380
S'None'
p381
ssa(dp382
S'arg'
p383
(dp384
S'info'
p385
S'None'
p386
sS'type'
p387
S'uint32_t'
p388
sS'name'
p389
S'None'
p390
ssasg20
S'toy.c'
p391
sg22
S'main'
p392
sg24
S'toy.c:64:5'
p393
sg26
S'int'
p394
sg28
I00
sbasS'parse_record'
p395
(lp396
(i__main__
Call
p397
(dp398
g6
S'toy.c:68:41'
p399
sg8
g395
sg9
(lp400
(dp401
S'arg'
p402
(dp403
S'info'
p404
S'None'
p405
sS'type'
p406
S'FILE *'
p407
sS'name'
p408
S'None'
p409
ssasg20
S'toy.c'
p410
sg22
S'main'
p411
sg24
S'toy.c:68:27'
p412
sg26
S'file_entry *'
p413
sg28
I00
sbasS'fopen'
p414
(lp415
(i__main__
Call
p416
(dp417
g6
S'toy.c:60:34'
p418
sg8
g414
sg9
(lp419
(dp420
S'arg'
p421
(dp422
S'info'
p423
S'None'
p424
sS'type'
p425
S'char *'
p426
sS'name'
p427
S'None'
p428
ssa(dp429
S'arg'
p430
(dp431
S'info'
p432
S'None'
p433
sS'type'
p434
S'char [3]'
p435
sS'name'
p436
S'None'
p437
ssasg20
S'toy.c'
p438
sg22
S'main'
p439
sg24
S'toy.c:60:15'
p440
sg26
S'FILE *'
p441
sg28
I00
sbas.(dp1
.